(dp0
S'class_sl'
p1
(dp2
S'IR'
p3
(I0
I8
tp4
sS'sham'
p5
(I18
I26
tp6
sS'IR+HLU'
p7
(I8
I18
tp8
ssS'class_hierarchy'
p9
(dp10
g3
(lp11
S'IR_subcl'
p12
asg5
(lp13
S'sham_subcl'
p14
asg7
(lp15
S'IR+HLU_subcl'
p16
assS'feats'
p17
(dp18
S'd__Bacteria.p__Patescibacteria.c__Saccharimonadia.o__Saccharimonadales'
p19
(lp20
F25.756600128783003
aF1055.8893136719462
aF1262.9877237593253
aF440.86639831320684
aF197.60614272809391
aF1462.9499421624441
aF850.0877074618813
aF0.0
aF31.320471059884735
aF0.0
aF0.0
aF0.0
aF0.0
aF0.0
aF0.0
aF45.93406929919921
aF92.0534830736658
aF1803.6136116963546
aF0.0
aF0.0
aF0.0
aF0.0
aF0.0
aF0.0
aF0.0
aF0.0
asS'd__Bacteria.p__Desulfobacterota.c__Desulfovibrionia'
p21
(lp22
F2240.824211204121
aF35299.472055343176
aF35431.01561052827
aF7149.702894383746
aF2822.944896115627
aF6861.121821769602
aF11631.358790986376
aF8105.702745259123
aF10053.871210222998
aF17025.399681638868
aF575.4843660080569
aF2688.0885049255726
aF18071.994122928747
aF30368.956178129025
aF6233.48697830289
aF25830.25830258302
aF11725.312406508183
aF14923.705548107004
aF8097.2878600885
aF4240.746655310693
aF26763.750860966244
aF38247.373327622256
aF22470.660214694923
aF2037.9988166458484
aF38968.56439229321
aF57839.683777461076
asS'd__Bacteria.p__Firmicutes.c__Clostridia.o__Clostridia_vadinBB60_group'
p23
(lp24
F23129.426915647135
aF12033.497178226839
aF1970.2608490645475
aF9699.06076289055
aF18603.206865401982
aF9991.154256163669
aF4776.683308595333
aF2724.7210241664957
aF17883.98897519418
aF49.43495842519997
aF15058.507577210821
aF10348.36383977128
aF12733.654395559548
aF10389.379745149403
aF8372.316455261864
aF6078.608503927361
aF16949.347570938717
aF5793.909212794484
aF4349.6583486349
aF10468.78881436531
aF7650.300108235755
aF11741.28851822923
aF13219.12601739066
aF4536.190914469792
aF22743.73460814139
aF2904.084541127753
asS'd__Bacteria.p__Bacteroidota.c__Bacteroidia.o__Bacteroidales.f__Rikenellaceae'
p25
(lp26
F21223.438506117192
aF11669.397414891682
aF15745.24695619959
aF19014.759440291353
aF15272.131887985543
aF9821.043797772687
aF13533.936041020112
aF8721.8456904224
aF19434.352292658477
aF39.54796674015997
aF20605.537438455147
aF17122.968395537464
aF7901.39580442413
aF27394.21924255206
aF20427.53714357608
aF15985.056116121325
aF16109.359537891518
aF20478.197024835597
aF2679.02832545679
aF2430.888250115335
aF6690.937715241561
aF5442.313991282218
aF10326.862821439829
aF4601.932811780948
aF10164.662707035588
aF6856.86627766275
asS'd__Bacteria.p__Firmicutes.c__Clostridia.o__Oscillospirales.f__Oscillospiraceae.f__Oscillospiraceae_x__L6'
p27
(lp28
F1442.369607211848
aF3841.252503185874
aF8857.753902632068
aF3354.4182480352697
aF2343.0442637759706
aF2653.7231508993173
aF1322.3586560518156
aF4532.0736633121105
aF1519.0428464044096
aF385.59267571655977
aF3325.0207813798843
aF4490.506230771622
aF1763.121377846707
aF18499.607808314464
aF6530.864338735689
aF4256.55708839246
aF2324.350447610062
aF8682.883227989529
aF4289.455464916769
aF3903.616168068421
aF4132.638000590376
aF4535.261659401848
aF4505.25613215418
aF2024.8504371836173
aF6784.489835337293
aF5888.838097286832
asS'd__Bacteria.p__Firmicutes.c__Bacilli.o__Erysipelotrichales.f__Erysipelotrichaceae.g__Turicibacter'
p29
(lp30
F80927.23760463619
aF23375.20480611688
aF42604.78588148124
aF247517.7304964539
aF49514.453477868105
aF5284.764907346504
aF305343.4084469034
aF84343.12316012871
aF214341.6436983212
aF775733.3676082379
aF98215.99846537504
aF117265.91876689767
aF76924.33270753411
aF17641.226006008674
aF96727.70527616063
aF119321.40068288647
aF371792.51144915196
aF14811.977271276255
aF10987.026278558744
aF23066.822811313396
aF22409.721538915666
aF32880.6470306634
aF25121.90147764985
aF79140.09598317009
aF12603.215993046502
aF18957.21853236172
asS'd__Bacteria.p__Firmicutes.c__Clostridia.o__Christensenellales'
p31
(lp32
F1519.639407598197
aF1110.5042781722195
aF1380.8665779768623
aF1418.4397163120568
aF1919.6025293586265
aF601.0569529814693
aF283.36256915396046
aF424.4540288902581
aF516.7877724880981
aF0.0
aF1806.3814821919561
aF1196.4324559495324
aF914.2110848094035
aF340.3927836729861
aF1189.5094417311939
aF704.3223959210545
aF978.0682576576992
aF654.4084785800932
aF722.4346046175613
aF674.2609744845454
aF1475.9421430679913
aF1788.9087656529514
aF667.4453529117303
aF710.0124909604892
aF772.6109421024676
aF564.6831052192853
asS'd__Bacteria.p__Firmicutes.c__Clostridia.o__Lachnospirales.f__Lachnospiraceae.g__uncultured'
p33
(lp34
F11925.30585962653
aF31804.114327325697
aF23592.6106798242
aF11596.703086064788
aF8158.310749774163
aF9276.690330921545
aF8163.540682768861
aF24002.19073047169
aF14579.679278376343
aF247.1747921259999
aF7864.953002110111
aF13906.585039932876
aF2301.852909966534
aF25662.655951693825
aF10797.085701867758
aF18496.118571144212
aF12956.527742618464
aF23494.860499265786
aF21913.84967339936
aF11143.049788849854
aF25828.98750368985
aF21769.255965128872
aF31610.953519847233
aF5824.732101768458
aF25858.32246849196
aF14466.643362284547
asS'd__Bacteria.p__Firmicutes.c__Clostridia.o__Lachnospirales.f__Lachnospiraceae.g__Tuzzerella'
p35
(lp36
F849.967804249839
aF1055.8893136719462
aF1902.9015037973836
aF2894.383745447575
aF338.75338753387524
aF737.1453196942548
aF310.3494805019567
aF465.5302252344766
aF642.069656727637
aF0.0
aF271.7565061704713
aF264.1474253395071
aF48.97559382907519
aF14.799686246651572
aF766.3185826537498
aF612.4542573226561
aF863.001403815617
aF1213.0498627338313
aF662.2317208994311
aF780.7232336136841
aF787.1691429695954
aF1058.227720527098
aF1112.4089215195506
aF144.6321740845441
aF2535.1296537737217
aF2204.953077522923
asS'd__Bacteria.p__Firmicutes.c__Bacilli.o__Erysipelotrichales.f__Erysipelotrichaceae.g__Dubosiella'
p37
(lp38
F0.0
aF0.0
aF0.0
aF0.0
aF0.0
aF22.681394452130917
aF67.4672783699906
aF2272.8828643800916
aF1440.7416687546977
aF2649.7137715907184
aF527.5273355073855
aF978.8992821405266
aF3216.0639947759373
aF665.9858810993206
aF22.875181571753725
aF45.93406929919921
aF80.54679768945759
aF0.0
aF857.891092983354
aF3051.9180950353107
aF2632.0968218045846
aF1914.8882561918915
aF574.7446094517678
aF578.5286963381764
aF700.1786662803612
aF1075.5868670843531
asS'd__Bacteria.p__Patescibacteria.c__Saccharimonadia'
p39
(lp40
F25.756600128783003
aF1055.8893136719462
aF1262.9877237593253
aF440.86639831320684
aF197.60614272809391
aF1462.9499421624441
aF850.0877074618813
aF0.0
aF31.320471059884735
aF0.0
aF0.0
aF0.0
aF0.0
aF0.0
aF0.0
aF45.93406929919921
aF92.0534830736658
aF1803.6136116963546
aF0.0
aF0.0
aF0.0
aF0.0
aF0.0
aF0.0
aF0.0
aF0.0
asS'd__Bacteria.p__Actinobacteriota.c__Actinobacteria.o__Bifidobacteriales'
p41
(lp42
F12878.3000643915
aF1219.7342071727658
aF4445.716787632825
aF26241.13475177305
aF1467.9313459801263
aF1542.3348227449023
aF4128.997436243424
aF15595.262545354966
aF1362.440491104986
aF1552.2576945512792
aF1518.639299187928
aF2408.4029957425646
aF8587.054118031183
aF399.5915286595924
aF697.6930379384886
aF704.3223959210545
aF1357.7888753365708
aF63.84472961757006
aF541.8259534631709
aF2111.5014727279186
aF1008.560464429794
aF856.6605356647935
aF611.8249068357528
aF696.8641114982579
aF531.1700226954464
aF2366.2911075855764
asS'd__Bacteria.p__Firmicutes.c__Clostridia.o__Monoglobales'
p43
(lp44
F437.862202189311
aF400.5097396686693
aF555.7145984541031
aF632.5474410580794
aF0.0
aF0.0
aF418.2971258939416
aF95.84445813650989
aF140.94211976948128
aF0.0
aF79.92838416778567
aF1072.127785201529
aF293.85356297445117
aF29.599372493303143
aF366.0029051480596
aF260.2930593621289
aF2796.124548362599
aF478.83547213177553
aF0.0
aF212.9245182582775
aF24.599035717799858
aF151.17538864672827
aF259.5620816878951
aF828.3479061205707
aF265.5850113477232
aF134.44835838554414
asS'd__Bacteria.p__Firmicutes.c__Clostridia.o__Lachnospirales.f__Lachnospiraceae.f__Lachnospiraceae_x__L6'
p45
(lp46
F45357.372826786865
aF159402.8763881304
aF192479.32910092117
aF44930.03641939812
aF35936.08852755194
aF88446.0976660845
aF30481.71636756175
aF75018.82658999109
aF35517.41418190929
aF1670.901594771759
aF40156.02020589552
aF48774.04518474782
aF12292.874051097873
aF98077.52075655996
aF50760.02790772152
aF91623.15689546935
aF67268.08275608129
aF173130.94554044565
aF51879.83504409862
aF28070.548990382915
aF70451.63829577879
aF111794.19990425555
aF127537.68285221647
aF18578.6601801328
aF87208.46008981601
aF73919.70744037216
asS'd__Bacteria.p__Desulfobacterota'
p47
(lp48
F2240.824211204121
aF35299.472055343176
aF35431.01561052827
aF7149.702894383746
aF2822.944896115627
aF6861.121821769602
aF11631.358790986376
aF8105.702745259123
aF10053.871210222998
aF17025.399681638868
aF575.4843660080569
aF2688.0885049255726
aF18071.994122928747
aF30368.956178129025
aF6233.48697830289
aF25830.25830258302
aF11725.312406508183
aF14923.705548107004
aF8097.2878600885
aF4240.746655310693
aF26763.750860966244
aF38247.373327622256
aF22470.660214694923
aF2037.9988166458484
aF38968.56439229321
aF57839.683777461076
asS'd__Bacteria.p__Firmicutes.c__Clostridia.o__Lachnospirales.f__Defluviitaleaceae.g__Defluviitaleaceae_UCG_011'
p49
(lp50
F360.592401802962
aF91.02494083378848
aF218.91787211828304
aF230.01725129384704
aF621.047877145438
aF283.51743065163646
aF0.0
aF27.38413089614568
aF46.9807065898271
aF0.0
aF207.81379883624277
aF108.76658690450294
aF48.97559382907519
aF29.599372493303143
aF0.0
aF153.11356433066402
aF195.61365153153983
aF0.0
aF165.55793022485778
aF53.23112956456937
aF122.99517858899928
aF75.58769432336413
aF0.0
aF65.74189731115641
aF0.0
aF134.44835838554414
asS'd__Bacteria.p__Bacteroidota.c__Bacteroidia.o__Bacteroidales.f__Rikenellaceae.g__Alistipes'
p51
(lp52
F21223.438506117192
aF11669.397414891682
aF15745.24695619959
aF19014.759440291353
aF15272.131887985543
aF9821.043797772687
aF13533.936041020112
aF8721.8456904224
aF19434.352292658477
aF39.54796674015997
aF20605.537438455147
aF17122.968395537464
aF7901.39580442413
aF27394.21924255206
aF20427.53714357608
aF15985.056116121325
aF16109.359537891518
aF20478.197024835597
aF2679.02832545679
aF2430.888250115335
aF6690.937715241561
aF5442.313991282218
aF10326.862821439829
aF4601.932811780948
aF10164.662707035588
aF6856.86627766275
asS'd__Bacteria.p__Firmicutes.c__Clostridia.o__Lachnospirales.f__Lachnospiraceae.g__Lachnospiraceae_UCG_001'
p53
(lp54
F180.296200901481
aF2366.6484616785006
aF875.6714884731322
aF1169.2543607437224
aF508.13008130081295
aF136.0883667127855
aF1862.0968830117404
aF6982.953378517149
aF109.62164870959657
aF0.0
aF12900.441204680608
aF7085.366232636192
aF848.9102930373033
aF7488.641240805695
aF68.62554471526119
aF1714.871920503437
aF6973.051342830186
aF25362.318840579712
aF1414.7677673760575
aF2537.3505092444734
aF22311.32539604447
aF20106.32669001486
aF6748.614123885273
aF1722.4377095522977
aF10961.417741078758
aF19629.46032428944
asS'd__Bacteria.p__Firmicutes.c__Bacilli.o__Erysipelotrichales.f__Erysipelotrichaceae'
p55
(lp56
F82936.25241468126
aF23812.124522119066
aF43160.50047993535
aF252482.26950354606
aF57842.1409214092
aF21830.84216017601
aF342382.9442720282
aF88806.73649620045
aF258503.50789275867
aF861433.8115341646
aF105681.30954664623
aF139298.92165698126
aF151301.93453595627
aF25899.450931640247
aF114661.84762841555
aF138521.84164995173
aF457586.3576738085
aF16807.125071825318
aF13319.888022636285
aF29880.40739557827
aF28953.06503985043
aF36861.59893169391
aF32575.041251830848
aF96706.33094471108
aF33994.88145250857
aF43346.15074349942
asS'd__Bacteria.p__Firmicutes.c__Clostridia.o__Oscillospirales.f__Oscillospiraceae'
p57
(lp58
F11178.36445589182
aF27234.662297469513
aF33696.5124698988
aF28119.608970672798
aF14905.149051490513
aF13846.991313025928
aF10349.480501956556
aF30081.467789416034
aF14939.864695565017
aF998.5861601890393
aF24442.09987850886
aF24721.091395009164
aF9468.614806954536
aF63327.857449422074
aF24430.693918632984
aF23855.093322717457
aF17950.429199364837
aF29623.954542552514
aF17669.546371271183
aF18435.71453919586
aF25484.601003640655
aF31671.243921489575
aF35986.42861115747
aF10439.813293011635
aF32159.93046501521
aF32321.385355884802
asS'd__Bacteria.p__Firmicutes.c__Clostridia.o__Lachnospirales.f__Lachnospiraceae.g___Eubacterium__oxidoreducens_group'
p59
(lp60
F0.0
aF1292.5541598397965
aF454.6755805533571
aF0.0
aF56.45889792231254
aF0.0
aF0.0
aF0.0
aF46.9807065898271
aF0.0
aF0.0
aF0.0
aF0.0
aF0.0
aF0.0
aF0.0
aF0.0
aF0.0
aF0.0
aF0.0
aF0.0
aF0.0
aF0.0
aF0.0
aF144.86455164421264
aF0.0
asS'd__Bacteria.p__Patescibacteria.c__Saccharimonadia.o__Saccharimonadales.f__Saccharimonadaceae.g__Candidatus_Saccharimonas'
p61
(lp62
F25.756600128783003
aF1055.8893136719462
aF1262.9877237593253
aF440.86639831320684
aF197.60614272809391
aF1462.9499421624441
aF850.0877074618813
aF0.0
aF31.320471059884735
aF0.0
aF0.0
aF0.0
aF0.0
aF0.0
aF0.0
aF45.93406929919921
aF92.0534830736658
aF1803.6136116963546
aF0.0
aF0.0
aF0.0
aF0.0
aF0.0
aF0.0
aF0.0
aF0.0
asS'd__Bacteria.p__Firmicutes.c__Clostridia.o__Oscillospirales.f__UCG_010.g__UCG_010'
p63
(lp64
F1983.2582099162908
aF1765.8838521754965
aF1094.5893605914152
aF843.3965880774391
aF1355.013550135501
aF1236.135997641135
aF121.44110106598305
aF410.7619634421852
aF313.2047105988473
aF0.0
aF1134.9830551825567
aF823.5184437055223
aF571.3819280058772
aF325.59309742633457
aF526.1291761503358
aF306.22712866132804
aF391.22730306307966
aF175.5730064483177
aF1414.7677673760575
aF1384.0093686788036
aF1057.758535865394
aF881.8564337725817
aF296.64237907188016
aF420.748142791401
aF265.5850113477232
aF403.34507515663233
asS'd__Bacteria.p__Firmicutes.c__Bacilli.o__RF39'
p65
(lp66
F669.671603348358
aF527.9446568359731
aF1667.1437953623094
aF1303.4310906651333
aF2060.7497741644074
aF612.3976502075348
aF148.4280124139793
aF355.99370164989386
aF2051.49085442245
aF39.54796674015997
aF1694.4817443570562
aF12150.781565617328
aF1077.4630642396542
aF710.3849398392754
aF1830.014525740298
aF4486.227434888456
aF368.2139322946632
aF191.5341888527102
aF556.8766743927035
aF1242.059689839952
aF1598.9373216569907
aF705.4851470180653
aF574.7446094517678
aF1196.5025310630467
aF1424.5014245014245
aF2043.6150474602705
asS'd__Bacteria.p__Firmicutes.c__Clostridia.o__Lachnospirales.f__Lachnospiraceae.g__Tyzzerella'
p67
(lp68
F0.0
aF36.40997633351539
aF0.0
aF0.0
aF0.0
aF362.90231123409467
aF26.986911347996237
aF150.61271992880125
aF0.0
aF0.0
aF95.91406100134282
aF139.8427545915038
aF0.0
aF162.79654871316728
aF251.62699728929098
aF107.17949503146481
aF333.69387614203856
aF510.7578369405605
aF0.0
aF0.0
aF0.0
aF403.13436972460875
aF278.10223037988766
aF0.0
aF0.0
aF699.1314636048294
asS'd__Bacteria.p__Verrucomicrobiota.c__Verrucomicrobiae'
p69
(lp70
F3013.522215067611
aF54.61496450027309
aF3300.607918091037
aF670.8836496070538
aF10219.060523938571
aF104583.90981877566
aF16839.83268114965
aF1684.1240501129596
aF7062.766224004007
aF7168.0689716539955
aF23546.901975829656
aF4801.26790764163
aF19198.432780997475
aF2219.952936997736
aF36520.22737930482
aF5879.560870297499
aF8733.574206614043
aF3000.702292025793
aF114806.89925047412
aF42797.82816991377
aF63711.50250910162
aF14034.115246037942
aF38396.64794111649
aF3707.8430083492212
aF3525.037423342508
aF1425.1525988867675
asS'd__Bacteria.p__Bacteroidota.c__Bacteroidia'
p71
(lp72
F419703.799098519
aF273202.2574185328
aF194045.43387838273
aF226011.11750047922
aF619777.551942186
aF484349.8378280297
aF392484.14518958324
aF447196.5495995071
aF125704.71059884738
aF29542.331154899504
aF636549.6515122452
aF502315.1744926816
aF475846.8696432946
aF175317.0832778345
aF434308.1973213162
aF374270.7966498751
aF145352.4497733183
aF350236.22549958504
aF566539.2372294634
aF643298.2007878209
aF460297.1563514709
aF467157.1468164982
aF395702.39353319607
aF637814.7393333772
aF479453.3777584625
aF430584.3125655436
asS'd__Bacteria.p__Firmicutes.c__Clostridia.o__Peptostreptococcales_Tissierellales.f__Anaerovoracaceae.g__Family_XIII_UCG_001'
p73
(lp74
F257.56600128783003
aF1966.1387220098309
aF892.5113247899233
aF1150.0862564692352
aF338.75338753387524
aF533.0127696250765
aF148.4280124139793
aF985.8287122612446
aF172.26259082936605
aF0.0
aF671.3984270093996
aF1180.8943721060318
aF750.9591053791529
aF754.7839985792301
aF617.6299024373507
aF872.7473166847849
aF747.9345499735347
aF2857.0516503862605
aF466.57234881550835
aF354.8741970971291
aF1156.1546787365933
aF1562.145682682859
aF1409.0513005914308
aF565.3803168759451
aF651.8904823989569
aF564.6831052192853
asS'd__Bacteria.p__Actinobacteriota.c__Coriobacteriia'
p75
(lp76
F566.6452028332261
aF910.2494083378848
aF151.55852685111904
aF4389.4958788575805
aF903.3423667570007
aF963.959264215564
aF1416.8128457698022
aF2067.501882658999
aF3006.7652217489344
aF2916.6625470867984
aF607.455719675171
aF1367.351378228037
aF4440.453840502817
aF1568.7667421450665
aF1178.071850945317
aF2312.0148213930265
aF7617.425724345846
aF941.7097618591586
aF827.7896511242889
aF2856.7372866318897
aF2263.111286037587
aF2292.826727808712
aF1334.8907058234606
aF1314.837946223128
aF1569.365976145637
aF1989.8357041060526
asS'd__Bacteria.p__Verrucomicrobiota.c__Verrucomicrobiae.o__Verrucomicrobiales.f__Akkermansiaceae.g__Akkermansia'
p77
(lp78
F3013.522215067611
aF54.61496450027309
aF3300.607918091037
aF670.8836496070538
aF10219.060523938571
aF104583.90981877566
aF16839.83268114965
aF1684.1240501129596
aF7062.766224004007
aF7168.0689716539955
aF23546.901975829656
aF4801.26790764163
aF19198.432780997475
aF2219.952936997736
aF36520.22737930482
aF5879.560870297499
aF8733.574206614043
aF3000.702292025793
aF114806.89925047412
aF42797.82816991377
aF63711.50250910162
aF14034.115246037942
aF38396.64794111649
aF3707.8430083492212
aF3525.037423342508
aF1425.1525988867675
asS'd__Bacteria.p__Firmicutes.c__Clostridia.o__Clostridiales'
p79
(lp80
F84842.2408242112
aF19297.287456763155
aF40078.81043396259
aF180927.73624688518
aF16006.097560975606
aF15049.105218988863
aF9175.549858318718
aF17416.307249948655
aF73634.427461789
aF1997.1723203780787
aF6953.769422597353
aF6541.533298113676
aF5779.120071830872
aF2575.1454069173737
aF49753.51991856435
aF18787.034343372477
aF81904.58656479415
aF2713.401008746728
aF33066.43388218296
aF47695.09208985416
aF57832.33297254746
aF19451.23333921237
aF15592.265049965701
aF32673.722963644734
aF4249.360181563571
aF12369.248971470059
asS'd__Bacteria.p__Firmicutes.c__Clostridia.o__Oscillospirales.f__Ruminococcaceae.g__Paludicola'
p81
(lp82
F0.0
aF163.84489350081927
aF404.1560716029841
aF191.6810427448725
aF112.91779584462508
aF170.11045839098188
aF40.48036702199435
aF136.92065448072842
aF0.0
aF0.0
aF175.84244516912847
aF233.0712576525063
aF16.325197943025064
aF429.19090115289555
aF114.37590785876863
aF61.2454257322656
aF126.5735392262905
aF143.65064163953267
aF90.30432557719516
aF106.46225912913874
aF147.59421430679913
aF251.95898107788048
aF352.2628251478577
aF65.74189731115641
aF289.7291032884253
aF242.00704509397943
asS'd__Bacteria.p__Firmicutes.c__Clostridia.o__Lachnospirales.f__Lachnospiraceae.g___Eubacterium__xylanophilum_group'
p83
(lp84
F12131.358660656793
aF37720.735481521944
aF24080.965933011135
aF8299.789150852981
aF11009.485094850945
aF25652.657125360067
aF11644.852246660375
aF15417.26569453002
aF15018.16587321473
aF553.6715343622396
aF10774.346185817509
aF14590.260729046895
aF4848.583789078443
aF48572.57026151045
aF21296.79404330272
aF44724.47214098696
aF27017.697282120916
aF21834.897529208964
aF1399.717046446525
aF1632.4213066467942
aF8954.049001279147
aF4762.024742371941
aF24250.514489126203
aF578.5286963381764
aF2366.121010188807
aF16994.272499932777
asS'd__Bacteria.p__Firmicutes.c__Bacilli.o__Erysipelotrichales.f__Erysipelatoclostridiaceae'
p85
(lp86
F103.02640051513201
aF0.0
aF0.0
aF210.84914701935978
aF112.91779584462508
aF34.022091678196375
aF67.4672783699906
aF54.76826179229136
aF172.26259082936605
aF0.0
aF287.74218300402845
aF217.5331738090059
aF179.57717737327567
aF73.99843123325785
aF171.56386178815296
aF30.6227128661328
aF241.64039306837273
aF31.92236480878503
aF150.50720929532525
aF70.97483941942583
aF49.198071435599715
aF100.78359243115219
aF37.08029738398502
aF197.22569193346925
aF0.0
aF0.0
asS'd__Bacteria.p__Firmicutes.c__Clostridia.o__Oscillospirales.f__Ruminococcaceae.g__Ruminococcus'
p87
(lp88
F7314.874436574372
aF4569.452029856182
aF10322.819662192887
aF3373.5863523097564
aF3048.7804878048773
aF4910.5218988863435
aF715.1531507219001
aF1013.2128431573904
aF1581.6837885241791
aF0.0
aF2126.095018863099
aF1041.051617514528
aF195.90237531630075
aF9087.007355444064
aF6942.617607027256
aF474.65204942505846
aF2255.3103353048123
aF8954.223328864202
aF5312.904488124981
aF6086.092480215765
aF5706.976286529567
aF5190.355010204337
aF945.5475832916179
aF867.7930445072645
aF724.3227582210633
aF1962.9460324289441
asS'd__Bacteria.p__Actinobacteriota.c__Coriobacteriia.o__Coriobacteriales'
p89
(lp90
F566.6452028332261
aF910.2494083378848
aF151.55852685111904
aF4389.4958788575805
aF903.3423667570007
aF963.959264215564
aF1416.8128457698022
aF2067.501882658999
aF3006.7652217489344
aF2916.6625470867984
aF607.455719675171
aF1367.351378228037
aF4440.453840502817
aF1568.7667421450665
aF1178.071850945317
aF2312.0148213930265
aF7617.425724345846
aF941.7097618591586
aF827.7896511242889
aF2856.7372866318897
aF2263.111286037587
aF2292.826727808712
aF1334.8907058234606
aF1314.837946223128
aF1569.365976145637
aF1989.8357041060526
asS'd__Bacteria.p__Desulfobacterota.c__Desulfovibrionia.o__Desulfovibrionales.f__Desulfovibrionaceae.g__Desulfovibrio'
p91
(lp92
F2240.824211204121
aF35299.472055343176
aF35431.01561052827
aF7149.702894383746
aF2822.944896115627
aF6861.121821769602
aF11631.358790986376
aF8105.702745259123
aF10053.871210222998
aF17025.399681638868
aF575.4843660080569
aF2688.0885049255726
aF18071.994122928747
aF30368.956178129025
aF6233.48697830289
aF25830.25830258302
aF11725.312406508183
aF14923.705548107004
aF8097.2878600885
aF4240.746655310693
aF26763.750860966244
aF38247.373327622256
aF22470.660214694923
aF2037.9988166458484
aF38968.56439229321
aF57839.683777461076
asS'd__Bacteria.p__Actinobacteriota.c__Coriobacteriia.o__Coriobacteriales.f__Eggerthellaceae.g__Enterorhabdus'
p93
(lp94
F412.10560206052804
aF837.4294556708539
aF117.87885421753704
aF3335.250143760782
aF846.8834688346882
aF861.8929891809748
aF1362.8390230738098
aF1314.4382830149927
aF1691.3054372337756
aF2056.4942704883188
aF559.4986891744998
aF1243.0467074800335
aF3460.9419639213133
aF1361.5711346919445
aF949.3200352277796
aF2174.2126134954287
aF7295.238533588015
aF877.8650322415884
aF496.6737906745734
aF1632.4213066467942
aF1426.7440716323918
aF1713.321071329587
aF815.7665424476704
aF1117.612254289659
aF1279.6368728572118
aF1559.6009572723117
asS'd__Bacteria.p__Bacteroidota.c__Bacteroidia.o__Bacteroidales.f__Marinifilaceae.g__Odoribacter'
p95
(lp96
F0.0
aF0.0
aF0.0
aF0.0
aF0.0
aF0.0
aF0.0
aF0.0
aF24868.454021548478
aF0.0
aF1182.940085683228
aF0.0
aF0.0
aF0.0
aF0.0
aF0.0
aF34.520056152624676
aF17908.446657728404
aF0.0
aF0.0
aF0.0
aF0.0
aF0.0
aF0.0
aF0.0
aF0.0
asS'd__Bacteria.p__Firmicutes.c__Bacilli.o__RF39.f__RF39'
p97
(lp98
F669.671603348358
aF527.9446568359731
aF1667.1437953623094
aF1303.4310906651333
aF2060.7497741644074
aF612.3976502075348
aF148.4280124139793
aF355.99370164989386
aF2051.49085442245
aF39.54796674015997
aF1694.4817443570562
aF12150.781565617328
aF1077.4630642396542
aF710.3849398392754
aF1830.014525740298
aF4486.227434888456
aF368.2139322946632
aF191.5341888527102
aF556.8766743927035
aF1242.059689839952
aF1598.9373216569907
aF705.4851470180653
aF574.7446094517678
aF1196.5025310630467
aF1424.5014245014245
aF2043.6150474602705
asS'd__Bacteria.p__Firmicutes.c__Clostridia.o__Clostridiales.f__Clostridiaceae.g__Clostridium_sensu_stricto_1'
p99
(lp100
F84842.2408242112
aF19297.287456763155
aF40078.81043396259
aF180927.73624688518
aF16006.097560975606
aF15049.105218988863
aF9175.549858318718
aF17416.307249948655
aF73634.427461789
aF1997.1723203780787
aF6953.769422597353
aF6541.533298113676
aF5779.120071830872
aF2575.1454069173737
aF49753.51991856435
aF18787.034343372477
aF81904.58656479415
aF2713.401008746728
aF33066.43388218296
aF47695.09208985416
aF57832.33297254746
aF19451.23333921237
aF15592.265049965701
aF32673.722963644734
aF4249.360181563571
aF12369.248971470059
asS'd__Bacteria.p__Firmicutes.c__Clostridia.o__Peptostreptococcales_Tissierellales.f__Anaerovoracaceae.g__Family_XIII_AD3011_group'
p101
(lp102
F798.4546039922731
aF254.8698343346077
aF370.4763989694021
aF785.8922752539773
aF479.9006323396566
aF487.6499807208147
aF161.9214680879774
aF232.7651126172383
aF93.9614131796542
aF0.0
aF495.5559818402712
aF326.29976071350876
aF669.3331156640276
aF147.9968624665157
aF571.8795392938432
aF199.04763362986324
aF402.7339884472879
aF63.84472961757006
aF195.65937208392285
aF177.43709854856456
aF196.79228574239886
aF201.56718486230437
aF74.16059476797004
aF144.6321740845441
aF289.7291032884253
aF161.33803006265293
asS'd__Bacteria.p__Firmicutes.c__Clostridia.o__Lachnospirales'
p103
(lp104
F199459.11139729552
aF549208.083014746
aF574036.3403667716
aF189515.04696185546
aF146200.31616982832
aF227857.28866610723
aF135352.85386587516
aF346039.5700691449
aF181971.9368579303
aF8097.446190047754
aF144542.48992902364
aF244553.9016128531
aF39180.475063260164
aF642454.3799671446
aF253399.82386110193
aF336007.7169236422
aF200849.19338135462
aF529639.9157249568
aF212501.12880406974
aF147680.8971219703
aF281831.1522188329
aF328932.449797173
aF389343.1225318426
aF60245.87469594374
aF324858.7570621468
aF269058.0548011509
asS'd__Bacteria.p__Firmicutes.c__Clostridia.o__Peptostreptococcales_Tissierellales.f__Peptostreptococcaceae.g__Romboutsia'
p105
(lp106
F8293.625241468126
aF2002.5486983433466
aF3014.3307007055896
aF12765.95744680851
aF48328.816621499536
aF30483.794143663952
aF28916.475509377964
aF2930.1020058875883
aF8785.39213229767
aF6940.668162898076
aF1230.8971161838992
aF2486.093414960067
aF2840.584442086361
aF902.7808610457458
aF2013.0159783143279
aF734.9451087871873
aF1898.6030883943574
aF207.49537125710273
aF2754.2819301044524
aF4844.0327903758125
aF6420.348322345762
aF2973.1159767189893
aF4152.993307006322
aF11373.348234830059
aF3476.749239461104
aF2231.8427492000324
asS'd__Bacteria.p__Firmicutes.c__Clostridia.o__Lachnospirales.f__Lachnospiraceae.g__Acetatifactor'
p107
(lp108
F1056.0206052801032
aF1456.3990533406156
aF1902.9015037973836
aF210.84914701935978
aF225.83559168925015
aF238.15464174737463
aF134.9345567399812
aF657.2191415074964
aF109.62164870959657
aF0.0
aF511.54165867382835
aF885.670779079524
aF32.65039588605013
aF1050.7777235122614
aF274.50217886104474
aF137.8022078975976
aF368.2139322946632
aF95.7670944263551
aF391.3187441678457
aF372.6179069519856
aF664.1739643805962
aF327.54667540124456
aF500.58401468379776
aF0.0
aF313.8731952291275
aF268.8967167710883
asS'd__Bacteria.p__Firmicutes.c__Clostridia.o__Oscillospirales.f__Oscillospiraceae.g__NK4A214_group'
p109
(lp110
F206.05280103026402
aF327.68978700163854
aF454.6755805533571
aF191.6810427448725
aF875.1129177958444
aF714.4639252421239
aF1227.9044663338286
aF232.7651126172383
aF297.54447506890494
aF0.0
aF927.1692563463138
aF1227.5086236365332
aF506.081136233777
aF2012.7573295446139
aF354.56531436218273
aF581.8315444565233
aF310.6805053736221
aF606.5249313669157
aF210.71009301345538
aF425.849036516555
aF196.79228574239886
aF529.113860263549
aF296.64237907188016
aF407.5997633291698
aF603.6022985175528
aF295.78638844819704
asS'd__Bacteria.p__Firmicutes.c__Clostridia.o__Clostridiales.f__Clostridiaceae'
p111
(lp112
F84842.2408242112
aF19297.287456763155
aF40078.81043396259
aF180927.73624688518
aF16006.097560975606
aF15049.105218988863
aF9175.549858318718
aF17416.307249948655
aF73634.427461789
aF1997.1723203780787
aF6953.769422597353
aF6541.533298113676
aF5779.120071830872
aF2575.1454069173737
aF49753.51991856435
aF18787.034343372477
aF81904.58656479415
aF2713.401008746728
aF33066.43388218296
aF47695.09208985416
aF57832.33297254746
aF19451.23333921237
aF15592.265049965701
aF32673.722963644734
aF4249.360181563571
aF12369.248971470059
asS'd__Bacteria.p__Desulfobacterota.c__Desulfovibrionia.o__Desulfovibrionales'
p113
(lp114
F2240.824211204121
aF35299.472055343176
aF35431.01561052827
aF7149.702894383746
aF2822.944896115627
aF6861.121821769602
aF11631.358790986376
aF8105.702745259123
aF10053.871210222998
aF17025.399681638868
aF575.4843660080569
aF2688.0885049255726
aF18071.994122928747
aF30368.956178129025
aF6233.48697830289
aF25830.25830258302
aF11725.312406508183
aF14923.705548107004
aF8097.2878600885
aF4240.746655310693
aF26763.750860966244
aF38247.373327622256
aF22470.660214694923
aF2037.9988166458484
aF38968.56439229321
aF57839.683777461076
asS'd__Bacteria.p__Firmicutes.c__Clostridia.o__Oscillospirales.f__Ruminococcaceae.g__Harryflintia'
p115
(lp116
F154.539600772698
aF618.9695976697616
aF370.4763989694021
aF57.50431282346176
aF112.91779584462508
aF158.76976116491642
aF0.0
aF68.46032724036421
aF0.0
aF0.0
aF79.92838416778567
aF15.53808384350042
aF0.0
aF547.5883911261081
aF171.56386178815296
aF30.6227128661328
aF218.6270222999563
aF462.874289727383
aF135.45648836579272
aF141.94967883885167
aF221.39132146019872
aF176.37128675451632
aF630.3650555277453
aF26.296758924462562
aF120.72045970351056
aF134.44835838554414
asS'd__Bacteria.p__Bacteroidota'
p117
(lp118
F419703.799098519
aF273202.2574185328
aF194045.43387838273
aF226011.11750047922
aF619777.551942186
aF484349.8378280297
aF392484.14518958324
aF447196.5495995071
aF125704.71059884738
aF29542.331154899504
aF636549.6515122452
aF502315.1744926816
aF475846.8696432946
aF175317.0832778345
aF434308.1973213162
aF374270.7966498751
aF145352.4497733183
aF350236.22549958504
aF566539.2372294634
aF643298.2007878209
aF460297.1563514709
aF467157.1468164982
aF395702.39353319607
aF637814.7393333772
aF479453.3777584625
aF430584.3125655436
asS'd__Bacteria.p__Firmicutes.c__Bacilli.o__RF39.f__RF39.g__RF39'
p119
(lp120
F669.671603348358
aF527.9446568359731
aF1667.1437953623094
aF1303.4310906651333
aF2060.7497741644074
aF612.3976502075348
aF148.4280124139793
aF355.99370164989386
aF2051.49085442245
aF39.54796674015997
aF1694.4817443570562
aF12150.781565617328
aF1077.4630642396542
aF710.3849398392754
aF1830.014525740298
aF4486.227434888456
aF368.2139322946632
aF191.5341888527102
aF556.8766743927035
aF1242.059689839952
aF1598.9373216569907
aF705.4851470180653
aF574.7446094517678
aF1196.5025310630467
aF1424.5014245014245
aF2043.6150474602705
asS'd__Bacteria.p__Firmicutes.c__Clostridia.o__Clostridia_vadinBB60_group.f__Clostridia_vadinBB60_group'
p121
(lp122
F23129.426915647135
aF12033.497178226839
aF1970.2608490645475
aF9699.06076289055
aF18603.206865401982
aF9991.154256163669
aF4776.683308595333
aF2724.7210241664957
aF17883.98897519418
aF49.43495842519997
aF15058.507577210821
aF10348.36383977128
aF12733.654395559548
aF10389.379745149403
aF8372.316455261864
aF6078.608503927361
aF16949.347570938717
aF5793.909212794484
aF4349.6583486349
aF10468.78881436531
aF7650.300108235755
aF11741.28851822923
aF13219.12601739066
aF4536.190914469792
aF22743.73460814139
aF2904.084541127753
asS'd__Bacteria.p__Firmicutes.c__Clostridia.o__Clostridia_vadinBB60_group.f__Clostridia_vadinBB60_group.g__Clostridia_vadinBB60_group'
p123
(lp124
F23129.426915647135
aF12033.497178226839
aF1970.2608490645475
aF9699.06076289055
aF18603.206865401982
aF9991.154256163669
aF4776.683308595333
aF2724.7210241664957
aF17883.98897519418
aF49.43495842519997
aF15058.507577210821
aF10348.36383977128
aF12733.654395559548
aF10389.379745149403
aF8372.316455261864
aF6078.608503927361
aF16949.347570938717
aF5793.909212794484
aF4349.6583486349
aF10468.78881436531
aF7650.300108235755
aF11741.28851822923
aF13219.12601739066
aF4536.190914469792
aF22743.73460814139
aF2904.084541127753
asS'd__Bacteria.p__Firmicutes.c__Bacilli.o__Acholeplasmatales.f__Acholeplasmataceae'
p125
(lp126
F2858.982614294913
aF728.1995266703078
aF286.2772173854471
aF268.3534598428215
aF9513.324299909662
aF827.8708975027785
aF755.6335177438946
aF301.2254398576025
aF2959.7845151591073
aF0.0
aF5275.273355073854
aF1009.9754498275272
aF261.203167088401
aF0.0
aF549.0043577220895
aF91.86813859839842
aF3716.659379099257
aF462.874289727383
aF466.57234881550835
aF692.0046843394018
aF885.5652858407949
aF201.56718486230437
aF2113.5769508871463
aF13.148379462231281
aF1496.933700323531
aF134.44835838554414
asS'd__Bacteria.p__Firmicutes.c__Clostridia.o__Lachnospirales.f__Lachnospiraceae.g__Lachnospiraceae_UCG_004'
p127
(lp128
F0.0
aF36.40997633351539
aF101.03901790074603
aF19.168104274487252
aF254.06504065040647
aF328.8802195558983
aF40.48036702199435
aF0.0
aF0.0
aF0.0
aF0.0
aF0.0
aF0.0
aF0.0
aF0.0
aF0.0
aF0.0
aF0.0
aF0.0
aF0.0
aF0.0
aF0.0
aF0.0
aF0.0
aF0.0
aF0.0
asS'd__Bacteria.p__Firmicutes.c__Clostridia.o__Lachnospirales.f__Lachnospiraceae.g__Lachnospiraceae_UCG_006'
p129
(lp130
F875.724404378622
aF5243.036592026217
aF4681.474496067899
aF2971.056162545524
aF536.3595302619691
aF2098.02898682211
aF1403.3193900958042
aF2656.2606969261315
aF3445.2518165873207
aF1097.4560770394394
aF367.6705671718141
aF1289.6609590105347
aF228.55277120235087
aF5298.287676301262
aF1612.7003008086376
aF6262.3447811241585
aF3716.659379099257
aF18945.923514013917
aF3521.8686975106116
aF727.4921040491148
aF3345.4688576207805
aF3048.7036710423536
aF8305.986614012643
aF972.9800802051149
aF6446.472548167464
aF2500.7394659711204
asS'd__Bacteria.p__Actinobacteriota.c__Coriobacteriia.o__Coriobacteriales.f__Atopobiaceae.g__Coriobacteriaceae_UCG_002'
p131
(lp132
F77.269800386349
aF18.204988166757694
aF16.839836316791004
aF421.69829403871955
aF56.45889792231254
aF56.70348613032729
aF53.973822695992475
aF725.6794687478606
aF1033.5755449761962
aF435.0276341417598
aF0.0
aF0.0
aF669.3331156640276
aF73.99843123325785
aF91.5007262870149
aF15.3113564330664
aF92.0534830736658
aF0.0
aF210.71009301345538
aF1082.366301146244
aF639.5749286627963
aF428.33026783239677
aF482.04386599180526
aF144.6321740845441
aF289.7291032884253
aF322.67606012530587
asS'd__Bacteria.p__Actinobacteriota.c__Actinobacteria.o__Bifidobacteriales.f__Bifidobacteriaceae.g__Bifidobacterium'
p133
(lp134
F12878.3000643915
aF1219.7342071727658
aF4445.716787632825
aF26241.13475177305
aF1467.9313459801263
aF1542.3348227449023
aF4128.997436243424
aF15595.262545354966
aF1362.440491104986
aF1552.2576945512792
aF1518.639299187928
aF2408.4029957425646
aF8587.054118031183
aF399.5915286595924
aF697.6930379384886
aF704.3223959210545
aF1357.7888753365708
aF63.84472961757006
aF541.8259534631709
aF2111.5014727279186
aF1008.560464429794
aF856.6605356647935
aF611.8249068357528
aF696.8641114982579
aF531.1700226954464
aF2366.2911075855764
asS'd__Bacteria.p__Firmicutes.c__Clostridia.o__Christensenellales.f__Christensenellaceae.g__uncultured'
p135
(lp136
F1519.639407598197
aF1110.5042781722195
aF1380.8665779768623
aF1418.4397163120568
aF1919.6025293586265
aF601.0569529814693
aF283.36256915396046
aF424.4540288902581
aF516.7877724880981
aF0.0
aF1806.3814821919561
aF1196.4324559495324
aF914.2110848094035
aF340.3927836729861
aF1189.5094417311939
aF704.3223959210545
aF978.0682576576992
aF654.4084785800932
aF722.4346046175613
aF674.2609744845454
aF1475.9421430679913
aF1788.9087656529514
aF667.4453529117303
aF710.0124909604892
aF772.6109421024676
aF564.6831052192853
asS'd__Bacteria.p__Firmicutes.c__Clostridia.o__Oscillospirales'
p137
(lp138
F36291.04958145524
aF58638.26688512653
aF65944.79901655359
aF47901.09258194364
aF30064.363143631428
aF39998.639116332866
aF18081.230603157477
aF50085.57540905045
aF29456.903031821592
aF2709.035721700958
aF38573.43819937337
aF41346.84110755461
aF12766.304791445598
aF98432.71322647961
aF45006.91974242546
aF41325.35101284621
aF34865.25671415093
aF63940.49671199642
aF35023.02760302219
aF35256.751481599786
aF49370.26468562431
aF58630.85489682279
aF77627.60257337264
aF16882.519229504964
aF55096.8178086822
aF51950.84568017424
asS'd__Bacteria.p__Bacteroidota.c__Bacteroidia.o__Bacteroidales'
p139
(lp140
F419703.799098519
aF273202.2574185328
aF194045.43387838273
aF226011.11750047922
aF619777.551942186
aF484349.8378280297
aF392484.14518958324
aF447196.5495995071
aF125704.71059884738
aF29542.331154899504
aF636549.6515122452
aF502315.1744926816
aF475846.8696432946
aF175317.0832778345
aF434308.1973213162
aF374270.7966498751
aF145352.4497733183
aF350236.22549958504
aF566539.2372294634
aF643298.2007878209
aF460297.1563514709
aF467157.1468164982
aF395702.39353319607
aF637814.7393333772
aF479453.3777584625
aF430584.3125655436
asS'd__Bacteria.p__Firmicutes.c__Bacilli.o__Erysipelotrichales.f__Erysipelotrichaceae.g__Faecalibaculum'
p141
(lp142
F0.0
aF0.0
aF0.0
aF134.17672992141075
aF5448.28364950316
aF9424.119394860396
aF27553.636486304156
aF27.38413089614568
aF1910.5487346529687
aF4379.937316472717
aF5275.273355073854
aF17185.120730911465
aF46869.64329442495
aF5372.28610753452
aF240.18940650341412
aF260.2930593621289
aF713.41449382091
aF31.92236480878503
aF75.25360464766263
aF230.66822811313395
aF270.5893928957984
aF201.56718486230437
aF148.32118953594008
aF0.0
aF24.14409194070211
aF0.0
asS'd__Bacteria.p__Firmicutes.c__Bacilli.o__Erysipelotrichales.f__Erysipelatoclostridiaceae.g__Erysipelatoclostridium'
p143
(lp144
F0.0
aF0.0
aF0.0
aF0.0
aF0.0
aF0.0
aF0.0
aF54.76826179229136
aF31.320471059884735
aF0.0
aF95.91406100134282
aF31.07616768700084
aF48.97559382907519
aF44.39905873995471
aF22.875181571753725
aF0.0
aF0.0
aF0.0
aF150.50720929532525
aF70.97483941942583
aF49.198071435599715
aF100.78359243115219
aF0.0
aF65.74189731115641
aF0.0
aF0.0
asS'd__Bacteria.p__Bacteroidota.c__Bacteroidia.o__Bacteroidales.f__Muribaculaceae.g__Muribaculaceae'
p145
(lp146
F391191.24275595625
aF259038.77662479525
aF177155.07805264136
aF204082.8062104658
aF584180.2168021679
aF460874.5945700742
aF371947.1056537581
aF436516.73855001025
aF80932.09721874216
aF29492.896196474303
aF606640.4501566597
aF482488.579508375
aF465757.89731450507
aF147020.0831742367
aF409019.6840937425
aF356570.8686132504
aF126562.03254090626
aF310828.0661431399
aF557644.2611601097
aF630984.0661485505
aF449030.7979927186
aF456322.9106301493
aF378589.83629048703
aF619052.0018407732
aF454898.8362547685
aF413643.819408965
asS'd__Bacteria.p__Firmicutes.c__Clostridia.o__Peptostreptococcales_Tissierellales.f__Anaerovoracaceae'
p147
(lp148
F2627.1732131358663
aF3094.847988348808
aF2138.659212232458
aF2894.383745447575
aF2625.3387533875334
aF1961.9406201093243
aF1146.9437322898398
aF2040.1177517628535
aF689.0503633174642
aF0.0
aF2126.095018863099
aF2890.083594891078
aF3673.1695371806395
aF1923.9592120647044
aF2230.3302032459887
aF2158.9012570623627
aF2335.8571329942697
aF3000.702292025793
aF1610.4271394599805
aF1295.2908194045215
aF2312.3093574731865
aF2670.765199425533
aF2428.7594786510185
aF1196.5025310630467
aF1786.6628036119562
aF1478.9319422409853
asS'd__Bacteria.p__Actinobacteriota.c__Coriobacteriia.o__Coriobacteriales.f__Eggerthellaceae.g__Parvibacter'
p149
(lp150
F77.269800386349
aF54.61496450027309
aF16.839836316791004
aF632.5474410580794
aF0.0
aF45.36278890426183
aF0.0
aF27.38413089614568
aF281.88423953896256
aF425.1406424567197
aF47.95703050067141
aF124.30467074800336
aF310.1787609174762
aF133.19717621986413
aF137.25108943052237
aF122.4908514645312
aF230.13370768416453
aF63.84472961757006
aF120.4057674362602
aF141.94967883885167
aF196.79228574239886
aF151.17538864672827
aF37.08029738398502
aF52.593517848925124
aF0.0
aF107.55868670843529
asS'd__Bacteria.p__Proteobacteria'
p151
(lp152
F0.0
aF0.0
aF33.67967263358201
aF0.0
aF28.22944896115627
aF34.022091678196375
aF0.0
aF232.7651126172383
aF0.0
aF0.0
aF95.91406100134282
aF0.0
aF16.325197943025064
aF0.0
aF22.875181571753725
aF0.0
aF23.01337076841645
aF0.0
aF45.15216278859758
aF88.71854927428228
aF49.198071435599715
aF100.78359243115219
aF0.0
aF184.07731247123795
aF0.0
aF107.55868670843529
asS'd__Bacteria.p__Firmicutes.c__Clostridia.o__Oscillospirales.f__Ruminococcaceae.g__Incertae_Sedis'
p153
(lp154
F3657.437218287186
aF8283.269615874751
aF4731.994005018272
aF8798.15986198965
aF1778.4552845528451
aF3186.735920524394
aF1835.1099716637439
aF8078.318614362976
aF3366.950638937609
aF1601.6926529764792
aF3356.9921350469986
aF3822.368625501103
aF1322.3410333850302
aF5150.2908138347475
aF2710.709016252816
aF3873.7731775658
aF3544.0590983361335
aF3623.1884057971015
aF3958.339604467054
aF3140.636644309593
aF6715.536750959361
aF11539.721333366924
aF20134.601479503865
aF1643.5474327789102
aF9657.636776280844
aF8685.36395170615
asS'd__Bacteria.p__Firmicutes.c__Clostridia.o__Clostridia_UCG_014'
p155
(lp156
F6104.314230521571
aF7245.585290369563
aF19517.370291160772
aF8108.108108108108
aF24446.70280036133
aF5488.897457415682
aF5829.172851167187
aF4942.835626754296
aF12418.566775244297
aF1947.737361952879
aF10582.518063814823
aF13984.275459150378
aF7787.119418822955
aF3329.9294054966035
aF6267.799750660521
aF5052.747622911913
aF4349.52707523071
aF2154.75962459299
aF3491.7672556515463
aF6760.35345470031
aF3074.879464724982
aF8717.780745294664
aF1427.5914492834231
aF107777.2664519098
aF12192.766430054566
aF112829.06235714862
asS'd__Bacteria.p__Firmicutes.c__Bacilli.o__Acholeplasmatales.f__Acholeplasmataceae.g__Anaeroplasma'
p157
(lp158
F2858.982614294913
aF728.1995266703078
aF286.2772173854471
aF268.3534598428215
aF9513.324299909662
aF827.8708975027785
aF755.6335177438946
aF301.2254398576025
aF2959.7845151591073
aF0.0
aF5275.273355073854
aF1009.9754498275272
aF261.203167088401
aF0.0
aF549.0043577220895
aF91.86813859839842
aF3716.659379099257
aF462.874289727383
aF466.57234881550835
aF692.0046843394018
aF885.5652858407949
aF201.56718486230437
aF2113.5769508871463
aF13.148379462231281
aF1496.933700323531
aF134.44835838554414
asS'd__Bacteria.p__Firmicutes.c__Clostridia.o__Lachnospirales.f__Lachnospiraceae.g__Lachnospiraceae_FCS020_group'
p159
(lp160
F437.862202189311
aF1165.1192426724924
aF1330.3470690264894
aF920.0690051753882
aF395.21228545618783
aF680.4418335639275
aF2496.2892996896517
aF533.9905524748409
aF736.0310699072912
aF632.7674678425595
aF1854.3385126926275
aF1522.7322166630413
aF0.0
aF636.3865086060175
aF720.5682195102423
aF7272.894305706541
aF2105.7234253101055
aF3367.809487326821
aF2543.5718370909967
aF1135.5974307108133
aF3542.2611433631796
aF1889.6923580841035
aF4152.993307006322
aF0.0
aF941.6195856873823
aF564.6831052192853
asS'd__Bacteria.p__Firmicutes.c__Bacilli.o__Erysipelotrichales.f__Erysipelotrichaceae.g__uncultured'
p161
(lp162
F51.513200257566005
aF0.0
aF0.0
aF115.00862564692352
aF28.22944896115627
aF11.340697226065458
aF0.0
aF0.0
aF0.0
aF0.0
aF95.91406100134282
aF77.6904192175021
aF0.0
aF547.5883911261081
aF537.5667669362125
aF352.16119796052726
aF34.520056152624676
aF335.1848304922429
aF60.2028837181301
aF35.48741970971292
aF0.0
aF0.0
aF0.0
aF26.296758924462562
aF0.0
aF80.66901503132647
asS'd__Bacteria.p__Desulfobacterota.c__Desulfovibrionia.o__Desulfovibrionales.f__Desulfovibrionaceae'
p163
(lp164
F2240.824211204121
aF35299.472055343176
aF35431.01561052827
aF7149.702894383746
aF2822.944896115627
aF6861.121821769602
aF11631.358790986376
aF8105.702745259123
aF10053.871210222998
aF17025.399681638868
aF575.4843660080569
aF2688.0885049255726
aF18071.994122928747
aF30368.956178129025
aF6233.48697830289
aF25830.25830258302
aF11725.312406508183
aF14923.705548107004
aF8097.2878600885
aF4240.746655310693
aF26763.750860966244
aF38247.373327622256
aF22470.660214694923
aF2037.9988166458484
aF38968.56439229321
aF57839.683777461076
asS'd__Bacteria.p__Firmicutes.c__Clostridia.c__Clostridia_x__L4.c__Clostridia_x__L5'
p165
(lp166
F0.0
aF1328.9641361733118
aF134.71869053432803
aF325.8577726662833
aF0.0
aF0.0
aF0.0
aF821.5239268843704
aF0.0
aF0.0
aF0.0
aF31.07616768700084
aF0.0
aF0.0
aF0.0
aF122.4908514645312
aF172.6002807631234
aF0.0
aF90.30432557719516
aF301.64306753255977
aF614.9758929449964
aF1058.227720527098
aF0.0
aF0.0
aF772.6109421024676
aF0.0
asS'd__Bacteria.p__Proteobacteria.c__Gammaproteobacteria.o__Burkholderiales'
p167
(lp168
F0.0
aF0.0
aF33.67967263358201
aF0.0
aF28.22944896115627
aF34.022091678196375
aF0.0
aF232.7651126172383
aF0.0
aF0.0
aF95.91406100134282
aF0.0
aF16.325197943025064
aF0.0
aF22.875181571753725
aF0.0
aF23.01337076841645
aF0.0
aF45.15216278859758
aF88.71854927428228
aF49.198071435599715
aF100.78359243115219
aF0.0
aF184.07731247123795
aF0.0
aF107.55868670843529
asS'd__Bacteria.p__Firmicutes.c__Clostridia.o__Lachnospirales.f__Lachnospiraceae.g__Roseburia'
p169
(lp170
F3219.575016097875
aF34298.1977061715
aF35296.29691999395
aF9469.043511596703
aF1919.6025293586265
aF2177.413867404568
aF1511.2670354877891
aF8639.693297733962
aF7704.8358807316445
aF98.86991685039995
aF1854.3385126926275
aF2113.1794027160568
aF326.50395886050126
aF4913.495833888322
aF1223.8222140888245
aF1194.2858017791793
aF2243.803649920604
aF1707.8465172699994
aF17805.002859636978
aF5465.062635295789
aF19162.648824166088
aF19728.388218398042
aF13775.330478150434
aF3997.10735651831
aF12917.08918827563
aF25572.077764930487
asS'd__Bacteria.p__Firmicutes.c__Bacilli.o__Erysipelotrichales'
p171
(lp172
F83039.27881519639
aF23812.124522119066
aF43160.50047993535
aF252693.11865056542
aF57955.05871725382
aF21864.864251854204
aF342450.4115503982
aF88861.50475799275
aF258675.770483588
aF861433.8115341646
aF105969.05172965027
aF139516.45483079026
aF151481.51171332956
aF25973.449362873504
aF114833.41149020371
aF138552.46436281787
aF457827.9980668769
aF16839.047436634104
aF13470.39523193161
aF29951.382234997694
aF29002.26311128603
aF36962.38252412506
aF32612.121549214833
aF96903.55663664454
aF33994.88145250857
aF43346.15074349942
asS'd__Bacteria.p__Firmicutes.c__Clostridia.o__Oscillospirales.f__UCG_010'
p173
(lp174
F1983.2582099162908
aF1765.8838521754965
aF1094.5893605914152
aF843.3965880774391
aF1355.013550135501
aF1236.135997641135
aF121.44110106598305
aF410.7619634421852
aF313.2047105988473
aF0.0
aF1134.9830551825567
aF823.5184437055223
aF571.3819280058772
aF325.59309742633457
aF526.1291761503358
aF306.22712866132804
aF391.22730306307966
aF175.5730064483177
aF1414.7677673760575
aF1384.0093686788036
aF1057.758535865394
aF881.8564337725817
aF296.64237907188016
aF420.748142791401
aF265.5850113477232
aF403.34507515663233
asS'd__Bacteria.p__Firmicutes.c__Clostridia.o__Peptostreptococcales_Tissierellales.f__Anaerovoracaceae.g___Eubacterium__nodatum_group'
p175
(lp176
F1081.777205408886
aF236.66484616785004
aF252.59754475186506
aF575.0431282346176
aF1298.5546522131885
aF340.22091678196375
aF512.7513156119284
aF342.30163620182105
aF93.9614131796542
aF0.0
aF879.2122258456424
aF1118.7420367320303
aF2040.649742878133
aF443.99058739954717
aF709.1306287243655
aF413.40662369279283
aF402.7339884472879
aF79.80591202196258
aF376.26802323831316
aF443.5927463714114
aF319.78746433139816
aF226.7630829700924
aF129.78104084394755
aF302.4127276313195
aF144.86455164421264
aF349.5657318024147
asS'd__Bacteria.p__Firmicutes.c__Clostridia.o__Oscillospirales.f__Ruminococcaceae.g__uncultured'
p177
(lp178
F6464.906632324533
aF9848.898598215914
aF6634.895508815656
aF2721.8708069771897
aF2427.732610659439
aF3663.045204019143
aF1943.0576170557288
aF4545.765728760183
aF3053.7459283387616
aF59.32195011023997
aF3724.6627022188122
aF6199.695453556667
aF734.6339074361279
aF8983.409551717503
aF3282.58855554666
aF4088.132167628729
aF2715.5777506731415
aF7262.337993998595
aF4199.151139339575
aF4063.309556762129
aF6026.763750860965
aF3804.5806142759952
aF9844.818955448023
aF1143.9090132141216
aF8667.729006712058
aF3038.532899513297
asS'd__Bacteria.p__Verrucomicrobiota.c__Verrucomicrobiae.o__Verrucomicrobiales.f__Akkermansiaceae'
p179
(lp180
F3013.522215067611
aF54.61496450027309
aF3300.607918091037
aF670.8836496070538
aF10219.060523938571
aF104583.90981877566
aF16839.83268114965
aF1684.1240501129596
aF7062.766224004007
aF7168.0689716539955
aF23546.901975829656
aF4801.26790764163
aF19198.432780997475
aF2219.952936997736
aF36520.22737930482
aF5879.560870297499
aF8733.574206614043
aF3000.702292025793
aF114806.89925047412
aF42797.82816991377
aF63711.50250910162
aF14034.115246037942
aF38396.64794111649
aF3707.8430083492212
aF3525.037423342508
aF1425.1525988867675
asS'd__Bacteria.p__Firmicutes.c__Clostridia.o__Oscillospirales.f__Oscillospiraceae.g__uncultured'
p181
(lp182
F2549.903412749517
aF10467.868195885674
aF14482.259232440263
aF12075.905692926968
aF3528.681120144534
aF2540.3161786386627
aF2010.5248954257195
aF10515.506264119942
aF4463.167126033574
aF118.64390022047994
aF4428.032482895326
aF6572.609465800678
aF1028.4874704105791
aF12298.539270967456
aF4517.848360421361
aF4700.586424951385
aF3348.4454468045938
aF5522.569111919811
aF4455.013395141628
aF6334.504418183755
aF10995.768965856536
aF12144.422887953839
aF13923.651667686376
aF3602.655972651371
aF10526.82408614612
aF8792.922638414584
asS'd__Bacteria.p__Firmicutes.c__Clostridia.o__Oscillospirales.f__Ruminococcaceae.f__Ruminococcaceae_x__L6'
p183
(lp184
F437.862202189311
aF2057.16366284362
aF2155.4990485492485
aF364.19398121525785
aF508.13008130081295
aF612.3976502075348
aF269.8691134799624
aF670.9112069555692
aF579.4287146078675
aF49.43495842519997
aF399.6419208389284
aF1118.7420367320303
aF0.0
aF2293.9513682309935
aF194.43904335990666
aF1209.5971582122456
aF747.9345499735347
aF1133.2439507118688
aF180.60865115439032
aF603.2861350651195
aF368.9855357669978
aF1562.145682682859
aF1371.9710032074456
aF249.81920978239438
aF1086.4841373315949
aF806.6901503132647
asS'd__Bacteria.p__Firmicutes.c__Bacilli.o__Erysipelotrichales.f__Erysipelotrichaceae.g__Ileibacterium'
p185
(lp186
F1957.5016097875082
aF309.4847988348808
aF303.1170537022381
aF4523.672608778992
aF2851.1743450767835
aF7087.9357662909115
aF9364.458237754692
aF2081.1939481070717
aF40779.253319969925
aF78641.13186280812
aF1134.9830551825567
aF3620.3735355355975
aF24177.61815362012
aF1672.3645458716276
aF17042.010270956525
aF18480.807214711145
aF84781.25791084621
aF1628.0406052480366
aF1339.514162728395
aF3442.2797118421527
aF3640.6572862343787
aF1814.1046637607392
aF6730.073975193281
aF16961.409506278356
aF20667.342701241007
aF23232.676329022022
asS'd__Bacteria.p__Firmicutes.c__Bacilli.o__Erysipelotrichales.f__Erysipelotrichaceae.g__Erysipelotrichaceae'
p187
(lp188
F0.0
aF109.22992900054618
aF252.59754475186506
aF191.6810427448725
aF0.0
aF0.0
aF26.986911347996237
aF68.46032724036421
aF31.320471059884735
aF29.660975055119984
aF15.985676833557136
aF46.61425153050126
aF65.30079177210025
aF0.0
aF91.5007262870149
aF45.93406929919921
aF23.01337076841645
aF0.0
aF0.0
aF0.0
aF0.0
aF0.0
aF0.0
aF0.0
aF0.0
aF0.0
asS'd__Bacteria.p__Firmicutes.c__Clostridia.o__Lachnospirales.f__Lachnospiraceae.g__Marvinbryantia'
p189
(lp190
F1545.3960077269799
aF2166.3935918441657
aF3687.92415337723
aF4753.689860072838
aF621.047877145438
aF1043.3441447980222
aF485.7644042639322
aF123.22858903265558
aF219.24329741919314
aF138.4178835905599
aF639.4270733422853
aF372.91401224401005
aF97.95118765815037
aF0.0
aF366.0029051480596
aF1485.201574007441
aF5408.142130577867
aF143.65064163953267
aF1219.1083952921347
aF674.2609744845454
aF713.3720358161959
aF554.3097583713371
aF1093.8687728275581
aF1775.031227401223
aF917.4754937466802
aF510.9037618650676
asS'd__Bacteria.p__Firmicutes.c__Clostridia.o__Lachnospirales.f__Defluviitaleaceae'
p191
(lp192
F360.592401802962
aF91.02494083378848
aF218.91787211828304
aF230.01725129384704
aF621.047877145438
aF283.51743065163646
aF0.0
aF27.38413089614568
aF46.9807065898271
aF0.0
aF207.81379883624277
aF108.76658690450294
aF48.97559382907519
aF29.599372493303143
aF0.0
aF153.11356433066402
aF195.61365153153983
aF0.0
aF165.55793022485778
aF53.23112956456937
aF122.99517858899928
aF75.58769432336413
aF0.0
aF65.74189731115641
aF0.0
aF134.44835838554414
asS'd__Bacteria.p__Patescibacteria'
p193
(lp194
F25.756600128783003
aF1055.8893136719462
aF1262.9877237593253
aF440.86639831320684
aF197.60614272809391
aF1462.9499421624441
aF850.0877074618813
aF0.0
aF31.320471059884735
aF0.0
aF0.0
aF0.0
aF0.0
aF0.0
aF0.0
aF45.93406929919921
aF92.0534830736658
aF1803.6136116963546
aF0.0
aF0.0
aF0.0
aF0.0
aF0.0
aF0.0
aF0.0
aF0.0
asS'd__Bacteria.p__Actinobacteriota.c__Coriobacteriia.o__Coriobacteriales.f__Eggerthellaceae'
p195
(lp196
F489.37540244687705
aF892.0444201711271
aF134.71869053432803
aF3967.797584818861
aF846.8834688346882
aF907.2557780852367
aF1362.8390230738098
aF1341.8224139111383
aF1973.1896767727383
aF2481.6349129450386
aF607.455719675171
aF1367.351378228037
aF3771.1207248387896
aF1494.7683109118086
aF1086.571124658302
aF2296.70346495996
aF7525.37224127218
aF941.7097618591586
aF617.0795581108337
aF1774.3709854856456
aF1623.5363573747904
aF1864.4964599763152
aF852.8468398316555
aF1170.205772138584
aF1279.6368728572118
aF1667.159643980747
asS'd__Bacteria.p__Firmicutes.c__Clostridia.o__Lachnospirales.f__Lachnospiraceae.g___Eubacterium__ventriosum_group'
p197
(lp198
F24185.44752092724
aF2530.4933551793197
aF4529.9159692167805
aF1935.9785317232127
aF8440.605239385724
aF2200.095261856699
aF6341.924166779115
aF2806.8734168549327
aF2349.035329491355
aF0.0
aF7928.895709444339
aF13704.58994996737
aF3836.4215166108897
aF1849.9607808314465
aF6553.739520307442
aF4440.293365589257
aF6984.558028214394
aF2154.75962459299
aF2453.2675115138018
aF1756.6272756307892
aF2779.691036111384
aF2746.3528937488973
aF426.42341991582776
aF2787.4564459930316
aF1038.1959534501907
aF1855.3873457205086
asS'd__Bacteria.p__Firmicutes.c__Bacilli.o__Erysipelotrichales.f__Erysipelatoclostridiaceae.g__Erysipelatoclostridiaceae'
p199
(lp200
F103.02640051513201
aF0.0
aF0.0
aF210.84914701935978
aF112.91779584462508
aF34.022091678196375
aF67.4672783699906
aF0.0
aF140.94211976948128
aF0.0
aF191.82812200268563
aF186.45700612200503
aF130.6015835442005
aF29.599372493303143
aF148.68868021639923
aF30.6227128661328
aF241.64039306837273
aF31.92236480878503
aF0.0
aF0.0
aF0.0
aF0.0
aF37.08029738398502
aF131.48379462231281
aF0.0
aF0.0
asS'd__Bacteria.p__Firmicutes.c__Clostridia.o__Lachnospirales.f__Lachnospiraceae.g__GCA_900066575'
p201
(lp202
F3142.305215711526
aF10686.328053886768
aF13050.87314551303
aF3737.7803335250146
aF1947.8319783197828
aF3470.2533511760307
aF2172.4463635136967
aF6517.4231532826725
aF2302.054622901528
aF118.64390022047994
aF2861.436153206727
aF4645.887069206626
aF424.45514651865165
aF12550.133937160534
aF3454.152417334813
aF4593.406929919921
aF3037.7649414309717
aF7549.639277277661
aF4439.962674212095
aF7984.669434685406
aF6494.145429499162
aF13253.042404696513
aF5524.964310213768
aF1143.9090132141216
aF16031.677048626201
aF10379.413267364005
asS'd__Bacteria.p__Firmicutes.c__Clostridia.o__Lachnospirales.f__Lachnospiraceae.g__Lachnospiraceae_NK4A136_group'
p203
(lp204
F79536.3811976819
aF224194.429273621
aF237340.6530488524
aF68813.49434540924
aF60580.39747064136
aF80836.4898273946
aF53299.14991229256
aF184144.58821113163
aF89764.47005762965
aF1206.2129855748794
aF46933.94718332375
aF118213.74188135119
aF9011.509264549835
aF419630.30383755866
aF142306.50455787993
aF134265.28456155927
aF39732.58463167101
aF228228.94720040858
aF76578.06808946149
aF74701.01848894569
aF76011.02036800155
aF92494.14195368992
aF125813.44902386119
aF16619.55164026034
aF126973.77951615241
aF86665.41181532174
asS'd__Bacteria.p__Firmicutes.c__Clostridia.o__Monoglobales.f__Monoglobaceae.g__Monoglobus'
p205
(lp206
F437.862202189311
aF400.5097396686693
aF555.7145984541031
aF632.5474410580794
aF0.0
aF0.0
aF418.2971258939416
aF95.84445813650989
aF140.94211976948128
aF0.0
aF79.92838416778567
aF1072.127785201529
aF293.85356297445117
aF29.599372493303143
aF366.0029051480596
aF260.2930593621289
aF2796.124548362599
aF478.83547213177553
aF0.0
aF212.9245182582775
aF24.599035717799858
aF151.17538864672827
aF259.5620816878951
aF828.3479061205707
aF265.5850113477232
aF134.44835838554414
asS'd__Bacteria.p__Firmicutes.c__Clostridia.o__Peptococcales'
p207
(lp208
F206.05280103026402
aF455.1247041689424
aF235.75770843507408
aF460.0345025876941
aF28.22944896115627
aF136.0883667127855
aF215.8952907839699
aF520.2984870267679
aF219.24329741919314
aF0.0
aF223.79947566979988
aF419.5282637745113
aF97.95118765815037
aF1021.1783510189584
aF354.56531436218273
aF750.2564652202536
aF667.3877522840771
aF1053.438038689906
aF421.42018602691076
aF461.3364562262679
aF98.39614287119943
aF529.113860263549
aF519.1241633757902
aF78.8902767733877
aF676.0345743396591
aF672.2417919277206
asS'd__Bacteria.p__Firmicutes.c__Clostridia.o__Oscillospirales.f__Oscillospiraceae.g__Oscillibacter'
p209
(lp210
F1210.560206052801
aF2931.003094847989
aF3064.850209655963
aF2568.5259727812922
aF1524.3902439024387
aF1633.0604005534262
aF2091.4856294697083
aF5161.908673923461
aF2411.6762716111243
aF0.0
aF2701.5793848711555
aF2827.9312595170763
aF326.50395886050126
aF6437.863517293433
aF1246.697395660578
aF3368.4984152746083
aF2681.0576945205166
aF2857.0516503862605
aF2949.941302188375
aF1472.7279179530858
aF2582.898750368985
aF2141.651339161984
aF3800.7304818584644
aF867.7930445072645
aF2631.70602153653
aF2742.7465110650996
asS'd__Bacteria.p__Firmicutes.c__Clostridia.o__Christensenellales.f__Christensenellaceae'
p211
(lp212
F1519.639407598197
aF1110.5042781722195
aF1380.8665779768623
aF1418.4397163120568
aF1919.6025293586265
aF601.0569529814693
aF283.36256915396046
aF424.4540288902581
aF516.7877724880981
aF0.0
aF1806.3814821919561
aF1196.4324559495324
aF914.2110848094035
aF340.3927836729861
aF1189.5094417311939
aF704.3223959210545
aF978.0682576576992
aF654.4084785800932
aF722.4346046175613
aF674.2609744845454
aF1475.9421430679913
aF1788.9087656529514
aF667.4453529117303
aF710.0124909604892
aF772.6109421024676
aF564.6831052192853
asS'd__Bacteria.p__Actinobacteriota'
p213
(lp214
F13444.945267224724
aF2129.98361551065
aF4597.275314483944
aF30630.63063063063
aF2371.2737127371265
aF2506.2940869604663
aF5545.810282013226
aF17662.76442801397
aF4369.20571285392
aF4468.920241638078
aF2126.095018863099
aF3775.7543739706016
aF13027.507958534
aF1968.358270804659
aF1875.7648888838053
aF3016.337217314081
aF8975.214599682417
aF1005.5544914767286
aF1369.61560458746
aF4968.238759359809
aF3271.671750467381
aF3149.4872634735057
aF1946.7156126592133
aF2011.702057721386
aF2100.5359988410833
aF4356.126811691629
asS'd__Bacteria.p__Firmicutes.c__Bacilli.o__Acholeplasmatales'
p215
(lp216
F2858.982614294913
aF728.1995266703078
aF286.2772173854471
aF268.3534598428215
aF9513.324299909662
aF827.8708975027785
aF755.6335177438946
aF301.2254398576025
aF2959.7845151591073
aF0.0
aF5275.273355073854
aF1009.9754498275272
aF261.203167088401
aF0.0
aF549.0043577220895
aF91.86813859839842
aF3716.659379099257
aF462.874289727383
aF466.57234881550835
aF692.0046843394018
aF885.5652858407949
aF201.56718486230437
aF2113.5769508871463
aF13.148379462231281
aF1496.933700323531
aF134.44835838554414
asS'd__Bacteria.p__Firmicutes.c__Clostridia.o__Peptostreptococcales_Tissierellales.f__Anaerovoracaceae.g___Eubacterium__brachy_group'
p217
(lp218
F489.37540244687705
aF637.1745858365193
aF623.0739437212673
aF383.362085489745
aF508.13008130081295
aF601.0569529814693
aF323.8429361759548
aF479.22229068254944
aF328.8649461287897
aF0.0
aF79.92838416778567
aF264.1474253395071
aF212.22757325932582
aF577.1877636194113
aF331.69013279042906
aF673.6996830549216
aF782.4546061261593
aF0.0
aF571.9273953222361
aF319.38677738741626
aF639.5749286627963
aF680.2892489102773
aF815.7665424476704
aF184.07731247123795
aF700.1786662803612
aF403.34507515663233
asS'd__Bacteria.p__Firmicutes.c__Clostridia.o__Peptococcales.f__Peptococcaceae.g__uncultured'
p219
(lp220
F206.05280103026402
aF455.1247041689424
aF235.75770843507408
aF460.0345025876941
aF28.22944896115627
aF136.0883667127855
aF215.8952907839699
aF520.2984870267679
aF219.24329741919314
aF0.0
aF223.79947566979988
aF419.5282637745113
aF97.95118765815037
aF1021.1783510189584
aF354.56531436218273
aF750.2564652202536
aF667.3877522840771
aF1053.438038689906
aF421.42018602691076
aF461.3364562262679
aF98.39614287119943
aF529.113860263549
aF519.1241633757902
aF78.8902767733877
aF676.0345743396591
aF672.2417919277206
asS'd__Bacteria.p__Bacteroidota.c__Bacteroidia.o__Bacteroidales.f__Bacteroidaceae'
p221
(lp222
F4198.325820991629
aF1492.809029674131
aF488.3552531869392
aF1590.952654782442
aF1806.6847335140012
aF805.1895030506475
aF310.3494805019567
aF1957.9653590744163
aF422.8263593084439
aF9.886991685039993
aF6793.912654261781
aF1880.1081450635506
aF1485.5930128152809
aF621.586822359366
aF3236.8381924031523
aF811.5018909525193
aF2002.1632568522316
aF606.5249313669157
aF1911.4415580506309
aF1561.4464672273682
aF1033.159500147594
aF3300.662652120234
aF2076.496653503161
aF1985.4052987969237
aF2269.5446424259985
aF779.8004786361558
asS'd__Bacteria.p__Bacteroidota.c__Bacteroidia.o__Bacteroidales.f__Muribaculaceae.g__Muribaculum'
p223
(lp224
F3090.7920154539597
aF1001.2743491716733
aF656.7536163548492
aF1322.5991949396205
aF18518.518518518515
aF12849.009957132164
aF6692.754014303066
aF0.0
aF46.9807065898271
aF0.0
aF1326.811177185242
aF823.5184437055223
aF701.9835115500778
aF281.1940386863799
aF1624.1378915945145
aF903.3700295509177
aF644.3743815156607
aF414.99074251420546
aF4304.506185846303
aF8321.799921927677
aF3542.2611433631796
aF2091.2595429464077
aF4709.197767766097
aF12175.399382026168
aF12120.33415423246
aF9303.826400279653
asS'd__Bacteria.p__Bacteroidota.c__Bacteroidia.o__Bacteroidales.f__Bacteroidaceae.g__Bacteroides'
p225
(lp226
F4198.325820991629
aF1492.809029674131
aF488.3552531869392
aF1590.952654782442
aF1806.6847335140012
aF805.1895030506475
aF310.3494805019567
aF1957.9653590744163
aF422.8263593084439
aF9.886991685039993
aF6793.912654261781
aF1880.1081450635506
aF1485.5930128152809
aF621.586822359366
aF3236.8381924031523
aF811.5018909525193
aF2002.1632568522316
aF606.5249313669157
aF1911.4415580506309
aF1561.4464672273682
aF1033.159500147594
aF3300.662652120234
aF2076.496653503161
aF1985.4052987969237
aF2269.5446424259985
aF779.8004786361558
asS'd__Bacteria.p__Firmicutes.c__Bacilli.o__Lactobacillales.f__Enterococcaceae.g__Enterococcus'
p227
(lp228
F128.78300064391502
aF0.0
aF50.519508950373016
aF57.50431282346176
aF0.0
aF158.76976116491642
aF67.4672783699906
aF0.0
aF31.320471059884735
aF0.0
aF0.0
aF0.0
aF97.95118765815037
aF0.0
aF57.187953929384314
aF76.55678216533201
aF195.61365153153983
aF0.0
aF0.0
aF0.0
aF0.0
aF0.0
aF0.0
aF276.1159687068569
aF48.28818388140422
aF0.0
asS'd__Bacteria.p__Firmicutes.c__Clostridia.o__Oscillospirales.f__Oscillospiraceae.g__UCG_005'
p229
(lp230
F437.862202189311
aF1292.5541598397965
aF555.7145984541031
aF115.00862564692352
aF536.3595302619691
aF419.60579736442196
aF94.45418971798682
aF232.7651126172383
aF203.58306188925079
aF19.773983370079986
aF207.81379883624277
aF62.15233537400168
aF0.0
aF3181.932543030088
aF1029.3831707289175
aF244.9817029290624
aF184.1069661473316
aF654.4084785800932
aF301.0144185906505
aF195.18080840342103
aF811.7681786873952
aF1209.4031091738261
aF1223.6498136715056
aF39.44513838669385
aF555.3141146361486
aF1344.483583855441
asS'd__Bacteria.p__Firmicutes.c__Bacilli.o__Erysipelotrichales.f__Erysipelotrichaceae.f__Erysipelotrichaceae_x__L6'
p231
(lp232
F0.0
aF18.204988166757694
aF0.0
aF0.0
aF0.0
aF0.0
aF26.986911347996237
aF13.69206544807284
aF0.0
aF0.0
aF415.62759767248554
aF124.30467074800336
aF48.97559382907519
aF0.0
aF0.0
aF15.3113564330664
aF161.09359537891518
aF0.0
aF0.0
aF53.23112956456937
aF0.0
aF50.39179621557609
aF0.0
aF0.0
aF0.0
aF0.0
asS'd__Bacteria.p__Firmicutes.c__Clostridia.o__Lachnospirales.f__Lachnospiraceae.g__ASF356'
p233
(lp234
F824.2112041210561
aF1856.9087930092849
aF909.3511611067142
aF3258.577726662833
aF959.8012646793132
aF90.72557780852367
aF2212.926730535691
aF2875.333744095297
aF234.9035329491355
aF0.0
aF2174.0520493637705
aF3061.0025171695825
aF1028.4874704105791
aF1568.7667421450667
aF114.37590785876863
aF336.8498415274608
aF69.04011230524935
aF383.0683777054204
aF1745.8836278257731
aF2395.400830405622
aF3911.2466791301777
aF3628.2093275214784
aF5932.8475814376025
aF1433.1733613832096
aF724.3227582210633
aF376.45540347952357
asS'd__Bacteria.p__Firmicutes'
p235
(lp236
F561571.1526078557
aF688257.7826324414
aF761328.9998821211
aF735096.7989265863
aF364583.3333333332
aF400201.8644106241
aF572648.7653488057
aF525118.0940644896
aF852778.1257830117
aF941795.2799501696
aF337105.9530660528
aF486419.7147207806
aF473838.87029630237
aF790125.6493362341
aF521039.44825062045
aF590957.1128906311
aF825098.3821600351
aF629030.1985571092
aF309141.8078925981
aF304606.2670783208
aF445906.72045655793
aF477311.093753937
aF541483.5826983334
aF354243.63947143516
aF475952.48442706064
aF505687.1655597084
asS'd__Bacteria.p__Firmicutes.c__Clostridia.o__Oscillospirales.f__Ruminococcaceae'
p237
(lp238
F22691.56471345782
aF29146.18605497907
aF30480.103733391716
aF17672.992141077248
aF12957.317073170729
aF24178.366485971554
aF7448.3875320469615
aF18703.3614020675
aF13608.744675519916
aF1710.4495615119192
aF12085.171686169195
aF14807.793902855901
aF2612.0316708840105
aF33891.28150483209
aF19283.778064988386
aF16413.774096247183
aF15580.05201021794
aF31746.791802336713
aF15472.141115559438
aF14425.636111998301
aF22409.72153891567
aF24566.000655093347
aF40250.662810315735
aF5758.990204457301
aF22043.555941861025
aF19226.11524913281
asS'd__Bacteria.p__Firmicutes.c__Clostridia.o__Oscillospirales.f__Butyricicoccaceae'
p239
(lp240
F437.862202189311
aF491.5346805024577
aF673.5934526716402
aF1265.0948821161587
aF846.8834688346882
aF737.1453196942548
aF161.9214680879774
aF889.9842541247348
aF595.0889501378099
aF0.0
aF911.1835795127566
aF994.4373659840269
aF114.27638560117543
aF887.9811747990943
aF766.3185826537499
aF750.2564652202536
aF943.5482015050745
aF2394.1773606588777
aF466.57234881550835
aF1011.3914617268182
aF418.18360720259756
aF1511.7538864672827
aF1093.8687728275581
aF262.96758924462563
aF627.746390458255
aF0.0
asS'd__Bacteria.p__Firmicutes.c__Clostridia.o__Peptostreptococcales_Tissierellales'
p241
(lp242
F10920.798454603992
aF5097.396686692155
aF5152.989912938047
aF15660.341192256084
aF50954.15537488708
aF32445.73476377328
aF30063.4192416678
aF4970.219757650441
aF9474.44249561513
aF6940.668162898076
aF3356.9921350469986
aF5376.177009851145
aF6513.753979267
aF2826.74007311045
aF4243.346181560317
aF2893.84636584955
aF4234.460221388627
aF3208.1976632828964
aF4364.709069564433
aF6139.323609780334
aF8732.657679818949
aF5643.881176144522
aF6581.752785657341
aF12569.850765893105
aF5263.41204307306
aF3710.7746914410177
asS'd__Bacteria.p__Firmicutes.c__Bacilli.o__Lactobacillales.f__Lactobacillaceae.g__Lactobacillus'
p243
(lp244
F111963.9407598197
aF8374.294556708539
aF7156.930434636178
aF26126.126126126128
aF6831.526648599817
aF45169.99705141872
aF25030.360275266507
aF7558.020127336209
aF263342.5206715109
aF58580.425733861965
aF2989.3215678751844
aF8872.245874638738
aF234854.29760835855
aF2042.3567020379169
aF34816.02635220917
aF35767.32862764312
aF15223.344763307483
aF1899.3807061227096
aF617.0795581108335
aF17069.44888037191
aF3714.4543933877785
aF2796.7446899644733
aF945.5475832916179
aF19551.640260337914
aF12096.190062291756
aF5969.507112318159
asS'd__Bacteria.p__Firmicutes.c__Clostridia.o__Oscillospirales.f__Ruminococcaceae.g__Ruminococcaceae'
p245
(lp246
F4146.812620734063
aF145.63990533406155
aF387.3162352861931
aF345.02587694077056
aF4601.400180668473
aF10501.485631336614
aF1430.3063014438003
aF232.7651126172383
aF2834.5026309195687
aF0.0
aF815.2695185114139
aF0.0
aF0.0
aF73.99843123325785
aF1441.1364390204847
aF704.3223959210545
aF1449.8423584102366
aF414.99074251420546
aF60.2028837181301
aF0.0
aF49.198071435599715
aF201.56718486230437
aF1205.1096649795131
aF13.148379462231281
aF410.44956299193586
aF0.0
asS'd__Bacteria.p__Bacteroidota.c__Bacteroidia.o__Bacteroidales.f__Marinifilaceae'
p247
(lp248
F0.0
aF0.0
aF0.0
aF0.0
aF0.0
aF0.0
aF0.0
aF0.0
aF24868.454021548478
aF0.0
aF1182.940085683228
aF0.0
aF0.0
aF0.0
aF0.0
aF0.0
aF34.520056152624676
aF17908.446657728404
aF0.0
aF0.0
aF0.0
aF0.0
aF0.0
aF0.0
aF0.0
aF0.0
asS'd__Bacteria.p__Firmicutes.c__Clostridia.o__Peptococcales.f__Peptococcaceae'
p249
(lp250
F206.05280103026402
aF455.1247041689424
aF235.75770843507408
aF460.0345025876941
aF28.22944896115627
aF136.0883667127855
aF215.8952907839699
aF520.2984870267679
aF219.24329741919314
aF0.0
aF223.79947566979988
aF419.5282637745113
aF97.95118765815037
aF1021.1783510189584
aF354.56531436218273
aF750.2564652202536
aF667.3877522840771
aF1053.438038689906
aF421.42018602691076
aF461.3364562262679
aF98.39614287119943
aF529.113860263549
aF519.1241633757902
aF78.8902767733877
aF676.0345743396591
aF672.2417919277206
asS'd__Bacteria.p__Firmicutes.c__Clostridia.o__Peptostreptococcales_Tissierellales.f__Peptostreptococcaceae'
p251
(lp252
F8293.625241468126
aF2002.5486983433466
aF3014.3307007055896
aF12765.95744680851
aF48328.816621499536
aF30483.794143663952
aF28916.475509377964
aF2930.1020058875883
aF8785.39213229767
aF6940.668162898076
aF1230.8971161838992
aF2486.093414960067
aF2840.584442086361
aF902.7808610457458
aF2013.0159783143279
aF734.9451087871873
aF1898.6030883943574
aF207.49537125710273
aF2754.2819301044524
aF4844.0327903758125
aF6420.348322345762
aF2973.1159767189893
aF4152.993307006322
aF11373.348234830059
aF3476.749239461104
aF2231.8427492000324
asS'd__Bacteria.p__Bacteroidota.c__Bacteroidia.o__Bacteroidales.f__Muribaculaceae'
p253
(lp254
F394282.0347714102
aF260040.05097396692
aF177811.83166899622
aF205405.4054054054
aF602698.7353206864
aF473723.60452720633
aF378639.8596680612
aF436516.73855001025
aF80979.07792533198
aF29492.896196474303
aF607967.261333845
aF483312.0979520806
aF466459.8808260552
aF147301.27721292307
aF410643.821985337
aF357474.2386428013
aF127206.40692242193
aF311243.0568856541
aF561948.767345956
aF639305.8660704781
aF452573.0591360818
aF458414.1701730957
aF383299.0340582531
aF631227.4012227993
aF467019.17040900094
aF422947.64580924466
asS'd__Bacteria.p__Actinobacteriota.c__Actinobacteria.o__Bifidobacteriales.f__Bifidobacteriaceae'
p255
(lp256
F12878.3000643915
aF1219.7342071727658
aF4445.716787632825
aF26241.13475177305
aF1467.9313459801263
aF1542.3348227449023
aF4128.997436243424
aF15595.262545354966
aF1362.440491104986
aF1552.2576945512792
aF1518.639299187928
aF2408.4029957425646
aF8587.054118031183
aF399.5915286595924
aF697.6930379384886
aF704.3223959210545
aF1357.7888753365708
aF63.84472961757006
aF541.8259534631709
aF2111.5014727279186
aF1008.560464429794
aF856.6605356647935
aF611.8249068357528
aF696.8641114982579
aF531.1700226954464
aF2366.2911075855764
asS'd__Bacteria.p__Firmicutes.c__Clostridia.o__Lachnospirales.f__Lachnospiraceae.g__Blautia'
p257
(lp258
F206.05280103026402
aF1074.094301838704
aF1397.7064142936533
aF1150.0862564692352
aF0.0
aF294.8581278777019
aF634.1924166779115
aF424.4540288902581
aF328.8649461287897
aF19.773983370079986
aF143.87109150201422
aF248.60934149600672
aF81.62598971512531
aF281.1940386863799
aF34.31277235763059
aF796.190534519453
aF287.66713460520566
aF941.7097618591586
aF1971.644441768761
aF35.48741970971292
aF910.1643215585947
aF1184.207211066038
aF1168.0293675955281
aF52.593517848925124
aF434.593654932638
aF457.12441851085
asS'd__Bacteria.p__Firmicutes.c__Clostridia'
p259
(lp260
F362910.4958145525
aF654815.2193701073
aF709007.6284458513
aF454648.26528656314
aF288222.6738934055
aF331567.9647984759
aF204196.4647146136
aF428041.3500376532
aF325717.2387872714
aF21741.494715402947
aF221177.82466909653
aF324870.25699990673
aF86066.44355562812
aF761399.4583314834
aF368953.8035708158
aF411982.6675445177
aF347766.5523669252
aF609637.3619357724
aF294030.88407934736
aF255651.37158877178
aF410705.5003443864
aF436644.9142079671
aF505237.5920054879
aF236302.67569522053
aF426891.6896035539
aF454193.44429804507
asS'd__Bacteria.p__Firmicutes.c__Clostridia.o__Oscillospirales.f__Ruminococcaceae.g__Anaerotruncus'
p261
(lp262
F515.1320025756601
aF3458.9477516839625
aF5472.946802957076
aF1820.9699060762891
aF366.98283649503156
aF975.2999614416294
aF1214.4110106598305
aF3957.0069144930517
aF2192.4329741919314
aF0.0
aF1406.7395613530277
aF2377.326828055564
aF342.8291568035263
aF7325.844692092528
aF4426.347634134347
aF5971.429008895897
aF4522.127355993833
aF9752.282449083828
aF1535.1735348123177
aF283.89935767770334
aF3173.2756075961815
aF1839.3005618685272
aF5765.98624320967
aF1748.7344684767604
aF1086.4841373315949
aF4356.126811691629
asS'd__Bacteria.p__Actinobacteriota.c__Actinobacteria'
p263
(lp264
F12878.3000643915
aF1219.7342071727658
aF4445.716787632825
aF26241.13475177305
aF1467.9313459801263
aF1542.3348227449023
aF4128.997436243424
aF15595.262545354966
aF1362.440491104986
aF1552.2576945512792
aF1518.639299187928
aF2408.4029957425646
aF8587.054118031183
aF399.5915286595924
aF697.6930379384886
aF704.3223959210545
aF1357.7888753365708
aF63.84472961757006
aF541.8259534631709
aF2111.5014727279186
aF1008.560464429794
aF856.6605356647935
aF611.8249068357528
aF696.8641114982579
aF531.1700226954464
aF2366.2911075855764
asS'd__Bacteria.p__Firmicutes.c__Clostridia.o__Oscillospirales.f__Butyricicoccaceae.g__Butyricicoccus'
p265
(lp266
F0.0
aF0.0
aF0.0
aF0.0
aF0.0
aF0.0
aF0.0
aF0.0
aF125.28188423953894
aF0.0
aF63.942707334228544
aF0.0
aF0.0
aF0.0
aF80.06313550113805
aF122.4908514645312
aF69.04011230524935
aF510.7578369405605
aF0.0
aF35.48741970971292
aF0.0
aF0.0
aF185.40148691992508
aF0.0
aF0.0
aF0.0
asS'd__Bacteria.p__Firmicutes.c__Clostridia.o__Oscillospirales.f__Butyricicoccaceae.g__UCG_009'
p267
(lp268
F437.862202189311
aF491.5346805024577
aF673.5934526716402
aF1265.0948821161587
aF846.8834688346882
aF737.1453196942548
aF161.9214680879774
aF889.9842541247348
aF469.807065898271
aF0.0
aF847.2408721785281
aF994.4373659840269
aF114.27638560117543
aF887.9811747990943
aF686.2554471526119
aF627.7656137557225
aF874.5080891998252
aF1883.4195237183171
aF466.57234881550835
aF975.9040420171052
aF418.18360720259756
aF1511.7538864672827
aF908.467285907633
aF262.96758924462563
aF627.746390458255
aF0.0
asS'd__Bacteria.p__Firmicutes.c__Clostridia.o__Oscillospirales.f__Oscillospiraceae.g__Colidextribacter'
p269
(lp270
F3786.220218931101
aF6226.105953031132
aF4782.513513968645
aF5558.750239601303
aF4657.859078590785
aF4933.203293338474
aF2752.664957495616
aF6750.188265899911
aF4384.865948383863
aF474.57560088191974
aF9159.79282562824
aF7271.823238758197
aF4881.234184964494
aF12653.731740887093
aF8292.253319760726
aF8298.75518672199
aF6673.877522840771
aF9911.894273127755
aF2964.9920231179076
aF4098.796976471842
aF4157.237036308175
aF7508.377636120837
aF6322.190703969446
aF2511.340477286175
aF7363.948041914144
aF8093.791174809757
asS'd__Bacteria.p__Firmicutes.c__Clostridia.o__Lachnospirales.f__Lachnospiraceae.g__Lachnoclostridium'
p271
(lp272
F5357.372826786864
aF15255.780083742948
aF20510.920633851445
aF19513.130151428024
aF4714.317976513097
aF6214.702079883871
aF7043.583861827017
aF9420.141028274116
aF4979.9548985216725
aF2313.5560542993585
aF5083.445233071168
aF8794.555455421238
aF3411.9663700922383
aF9249.803904157232
aF10636.959430865481
aF14867.327096507477
aF15821.69240328631
aF15897.337674774948
aF15743.054092291024
aF4915.007629795238
aF24648.233789235455
aF23910.907304290857
aF23026.864675454697
aF2485.0437183617123
aF24216.524216524216
aF7932.453144747103
asS'd__Bacteria.p__Firmicutes.c__Bacilli.o__Lactobacillales.f__Enterococcaceae'
p273
(lp274
F128.78300064391502
aF0.0
aF50.519508950373016
aF57.50431282346176
aF0.0
aF158.76976116491642
aF67.4672783699906
aF0.0
aF31.320471059884735
aF0.0
aF0.0
aF0.0
aF97.95118765815037
aF0.0
aF57.187953929384314
aF76.55678216533201
aF195.61365153153983
aF0.0
aF0.0
aF0.0
aF0.0
aF0.0
aF0.0
aF276.1159687068569
aF48.28818388140422
aF0.0
asS'd__Bacteria.p__Firmicutes.c__Clostridia.o__Monoglobales.f__Monoglobaceae'
p275
(lp276
F437.862202189311
aF400.5097396686693
aF555.7145984541031
aF632.5474410580794
aF0.0
aF0.0
aF418.2971258939416
aF95.84445813650989
aF140.94211976948128
aF0.0
aF79.92838416778567
aF1072.127785201529
aF293.85356297445117
aF29.599372493303143
aF366.0029051480596
aF260.2930593621289
aF2796.124548362599
aF478.83547213177553
aF0.0
aF212.9245182582775
aF24.599035717799858
aF151.17538864672827
aF259.5620816878951
aF828.3479061205707
aF265.5850113477232
aF134.44835838554414
asS'd__Bacteria.p__Firmicutes.c__Clostridia.c__Clostridia_x__L4'
p277
(lp278
F0.0
aF1328.9641361733118
aF134.71869053432803
aF325.8577726662833
aF0.0
aF0.0
aF0.0
aF821.5239268843704
aF0.0
aF0.0
aF0.0
aF31.07616768700084
aF0.0
aF0.0
aF0.0
aF122.4908514645312
aF172.6002807631234
aF0.0
aF90.30432557719516
aF301.64306753255977
aF614.9758929449964
aF1058.227720527098
aF0.0
aF0.0
aF772.6109421024676
aF0.0
asS'd__Bacteria.p__Firmicutes.c__Clostridia.o__Oscillospirales.f__Oscillospiraceae.g__Intestinimonas'
p279
(lp280
F1545.3960077269799
aF2148.188603677408
aF1498.7454321943994
aF4255.319148936171
aF1439.70189701897
aF952.6185669894985
aF850.0877074618813
aF2656.2606969261315
aF1659.9849661738908
aF0.0
aF3692.691348551698
aF2268.5602411510613
aF963.1866786384787
aF8243.425239384926
aF2459.0820189635256
aF2403.882959991425
aF2427.9106160679357
aF1388.6228691821489
aF2498.4196743023995
aF2005.03921359878
aF2607.497786086785
aF3603.0134294136906
aF5914.307432745611
aF986.1284596673462
aF3694.0460669274225
aF5162.816962004894
asS'd__Bacteria.p__Firmicutes.c__Clostridia.o__Lachnospirales.f__Lachnospiraceae.g__A2'
p281
(lp282
F8267.868641339344
aF15474.239941744041
aF5691.86467507536
aF3641.9398121525783
aF8976.964769647695
aF3288.802195558983
aF5087.03278909729
aF5175.6007393715345
aF3836.75770483588
aF0.0
aF1918.281220026856
aF4832.34407532863
aF310.1787609174762
aF5416.685166274475
aF2161.704658530727
aF2924.469078715683
aF5465.675557498907
aF4676.626444487008
aF6652.418650853377
aF3300.330033003301
aF11192.561251598936
aF6198.190934515859
aF8083.504829708734
aF2064.295575570311
aF4828.818388140422
aF3925.8920648578883
asS'd__Bacteria.p__Firmicutes.c__Clostridia.o__Clostridia_UCG_014.f__Clostridia_UCG_014.g__Clostridia_UCG_014'
p283
(lp284
F6104.314230521571
aF7245.585290369563
aF19517.370291160772
aF8108.108108108108
aF24446.70280036133
aF5488.897457415682
aF5829.172851167187
aF4942.835626754296
aF12418.566775244297
aF1947.737361952879
aF10582.518063814823
aF13984.275459150378
aF7787.119418822955
aF3329.9294054966035
aF6267.799750660521
aF5052.747622911913
aF4349.52707523071
aF2154.75962459299
aF3491.7672556515463
aF6760.35345470031
aF3074.879464724982
aF8717.780745294664
aF1427.5914492834231
aF107777.2664519098
aF12192.766430054566
aF112829.06235714862
asS'd__Bacteria.p__Firmicutes.c__Bacilli'
p285
(lp286
F198660.65679330326
aF33442.56326233389
aF52321.37143626965
aF280448.533640023
aF76360.65943992772
aF68633.89961214815
aF368452.3006341926
aF97076.74402683644
aF527060.8869957405
aF920053.7852347667
aF115928.12839695637
aF161549.45772087388
aF387772.4267406743
aF28726.191004750694
aF152085.64467980468
aF178974.44534611318
aF477331.82979310985
aF19392.836621336904
aF15110.923813250654
aF48954.89548954896
aF35201.2201121716
aF40666.1795459699
aF36245.99069284537
aF117940.96377621459
aF49060.79482350669
aF51493.7212616634
asS'd__Bacteria.p__Firmicutes.c__Clostridia.o__Lachnospirales.f__Lachnospiraceae'
p287
(lp288
F199098.51899549257
aF549117.0580739123
aF573817.4224946533
aF189285.0297105616
aF145579.26829268291
aF227573.77123545558
aF135352.85386587516
aF346012.1859382487
aF181924.95615134045
aF8097.446190047754
aF144334.67613018738
aF244445.1350259486
aF39131.49946943109
aF642424.7805946514
aF253399.82386110193
aF335854.6033593115
aF200653.57972982308
aF529639.9157249568
aF212335.57087384487
aF147627.66599240573
aF281708.1570402439
aF328856.86210284964
aF389343.1225318426
aF60180.13279863257
aF324858.7570621468
aF268923.60644276533
asS'd__Bacteria.p__Firmicutes.c__Clostridia.o__Clostridia_UCG_014.f__Clostridia_UCG_014'
p289
(lp290
F6104.314230521571
aF7245.585290369563
aF19517.370291160772
aF8108.108108108108
aF24446.70280036133
aF5488.897457415682
aF5829.172851167187
aF4942.835626754296
aF12418.566775244297
aF1947.737361952879
aF10582.518063814823
aF13984.275459150378
aF7787.119418822955
aF3329.9294054966035
aF6267.799750660521
aF5052.747622911913
aF4349.52707523071
aF2154.75962459299
aF3491.7672556515463
aF6760.35345470031
aF3074.879464724982
aF8717.780745294664
aF1427.5914492834231
aF107777.2664519098
aF12192.766430054566
aF112829.06235714862
asS'd__Bacteria.p__Proteobacteria.c__Gammaproteobacteria'
p291
(lp292
F0.0
aF0.0
aF33.67967263358201
aF0.0
aF28.22944896115627
aF34.022091678196375
aF0.0
aF232.7651126172383
aF0.0
aF0.0
aF95.91406100134282
aF0.0
aF16.325197943025064
aF0.0
aF22.875181571753725
aF0.0
aF23.01337076841645
aF0.0
aF45.15216278859758
aF88.71854927428228
aF49.198071435599715
aF100.78359243115219
aF0.0
aF184.07731247123795
aF0.0
aF107.55868670843529
asS'd__Bacteria'
p293
(lp294
F1000000.0
aF1000000.0
aF1000000.0
aF1000000.0
aF1000000.0
aF1000000.0
aF1000000.0
aF1000000.0
aF1000000.0
aF1000000.0
aF1000000.0
aF1000000.0
aF1000000.0
aF1000000.0
aF1000000.0
aF1000000.0
aF1000000.0
aF1000000.0
aF1000000.0
aF1000000.0
aF1000000.0
aF1000000.0
aF1000000.0
aF1000000.0
aF1000000.0
aF1000000.0
asS'd__Bacteria.p__Actinobacteriota.c__Coriobacteriia.o__Coriobacteriales.f__Atopobiaceae'
p295
(lp296
F77.269800386349
aF18.204988166757694
aF16.839836316791004
aF421.69829403871955
aF56.45889792231254
aF56.70348613032729
aF53.973822695992475
aF725.6794687478606
aF1033.5755449761962
aF435.0276341417598
aF0.0
aF0.0
aF669.3331156640276
aF73.99843123325785
aF91.5007262870149
aF15.3113564330664
aF92.0534830736658
aF0.0
aF210.71009301345538
aF1082.366301146244
aF639.5749286627963
aF428.33026783239677
aF482.04386599180526
aF144.6321740845441
aF289.7291032884253
aF322.67606012530587
asS'd__Bacteria.p__Verrucomicrobiota.c__Verrucomicrobiae.o__Verrucomicrobiales'
p297
(lp298
F3013.522215067611
aF54.61496450027309
aF3300.607918091037
aF670.8836496070538
aF10219.060523938571
aF104583.90981877566
aF16839.83268114965
aF1684.1240501129596
aF7062.766224004007
aF7168.0689716539955
aF23546.901975829656
aF4801.26790764163
aF19198.432780997475
aF2219.952936997736
aF36520.22737930482
aF5879.560870297499
aF8733.574206614043
aF3000.702292025793
aF114806.89925047412
aF42797.82816991377
aF63711.50250910162
aF14034.115246037942
aF38396.64794111649
aF3707.8430083492212
aF3525.037423342508
aF1425.1525988867675
asS'd__Bacteria.p__Patescibacteria.c__Saccharimonadia.o__Saccharimonadales.f__Saccharimonadaceae'
p299
(lp300
F25.756600128783003
aF1055.8893136719462
aF1262.9877237593253
aF440.86639831320684
aF197.60614272809391
aF1462.9499421624441
aF850.0877074618813
aF0.0
aF31.320471059884735
aF0.0
aF0.0
aF0.0
aF0.0
aF0.0
aF0.0
aF45.93406929919921
aF92.0534830736658
aF1803.6136116963546
aF0.0
aF0.0
aF0.0
aF0.0
aF0.0
aF0.0
aF0.0
aF0.0
asS'd__Bacteria.p__Proteobacteria.c__Gammaproteobacteria.o__Burkholderiales.f__Sutterellaceae.g__Parasutterella'
p301
(lp302
F0.0
aF0.0
aF33.67967263358201
aF0.0
aF28.22944896115627
aF34.022091678196375
aF0.0
aF232.7651126172383
aF0.0
aF0.0
aF95.91406100134282
aF0.0
aF16.325197943025064
aF0.0
aF22.875181571753725
aF0.0
aF23.01337076841645
aF0.0
aF45.15216278859758
aF88.71854927428228
aF49.198071435599715
aF100.78359243115219
aF0.0
aF184.07731247123795
aF0.0
aF107.55868670843529
asS'd__Bacteria.p__Firmicutes.c__Clostridia.c__Clostridia_x__L4.c__Clostridia_x__L5.c__Clostridia_x__L6'
p303
(lp304
F0.0
aF1328.9641361733118
aF134.71869053432803
aF325.8577726662833
aF0.0
aF0.0
aF0.0
aF821.5239268843704
aF0.0
aF0.0
aF0.0
aF31.07616768700084
aF0.0
aF0.0
aF0.0
aF122.4908514645312
aF172.6002807631234
aF0.0
aF90.30432557719516
aF301.64306753255977
aF614.9758929449964
aF1058.227720527098
aF0.0
aF0.0
aF772.6109421024676
aF0.0
asS'd__Bacteria.p__Proteobacteria.c__Gammaproteobacteria.o__Burkholderiales.f__Sutterellaceae'
p305
(lp306
F0.0
aF0.0
aF33.67967263358201
aF0.0
aF28.22944896115627
aF34.022091678196375
aF0.0
aF232.7651126172383
aF0.0
aF0.0
aF95.91406100134282
aF0.0
aF16.325197943025064
aF0.0
aF22.875181571753725
aF0.0
aF23.01337076841645
aF0.0
aF45.15216278859758
aF88.71854927428228
aF49.198071435599715
aF100.78359243115219
aF0.0
aF184.07731247123795
aF0.0
aF107.55868670843529
asS'd__Bacteria.p__Verrucomicrobiota'
p307
(lp308
F3013.522215067611
aF54.61496450027309
aF3300.607918091037
aF670.8836496070538
aF10219.060523938571
aF104583.90981877566
aF16839.83268114965
aF1684.1240501129596
aF7062.766224004007
aF7168.0689716539955
aF23546.901975829656
aF4801.26790764163
aF19198.432780997475
aF2219.952936997736
aF36520.22737930482
aF5879.560870297499
aF8733.574206614043
aF3000.702292025793
aF114806.89925047412
aF42797.82816991377
aF63711.50250910162
aF14034.115246037942
aF38396.64794111649
aF3707.8430083492212
aF3525.037423342508
aF1425.1525988867675
asS'd__Bacteria.p__Firmicutes.c__Bacilli.o__Lactobacillales'
p309
(lp310
F112092.72376046362
aF8374.294556708539
aF7207.44994358655
aF26183.63043894959
aF6831.526648599817
aF45328.766812583635
aF25097.8275536365
aF7558.020127336209
aF263373.8411425707
aF58580.425733861965
aF2989.3215678751844
aF8872.245874638738
aF234952.2487960167
aF2042.3567020379169
aF34873.21430613856
aF35843.88540980845
aF15418.958414839022
aF1899.3807061227096
aF617.0795581108335
aF17069.44888037191
aF3714.4543933877785
aF2796.7446899644733
aF945.5475832916179
aF19827.756229044775
aF12144.478246173161
aF5969.507112318159
asS'd__Bacteria.p__Firmicutes.c__Bacilli.o__Lactobacillales.f__Lactobacillaceae'
p311
(lp312
F111963.9407598197
aF8374.294556708539
aF7156.930434636178
aF26126.126126126128
aF6831.526648599817
aF45169.99705141872
aF25030.360275266507
aF7558.020127336209
aF263342.5206715109
aF58580.425733861965
aF2989.3215678751844
aF8872.245874638738
aF234854.29760835855
aF2042.3567020379169
aF34816.02635220917
aF35767.32862764312
aF15223.344763307483
aF1899.3807061227096
aF617.0795581108335
aF17069.44888037191
aF3714.4543933877785
aF2796.7446899644733
aF945.5475832916179
aF19551.640260337914
aF12096.190062291756
aF5969.507112318159
assS'subclass_sl'
p313
(dp314
g14
(I18
I26
tp315
sg12
(I0
I8
tp316
sg16
(I8
I18
tp317
ssS'norm'
p318
F1000000.0
sS'cls'
p319
(dp320
S'class'
p321
(S'IR'
p322
S'IR'
p323
S'IR'
p324
S'IR'
p325
S'IR'
p326
S'IR'
p327
S'IR'
p328
g3
S'IR+HLU'
p329
S'IR+HLU'
p330
S'IR+HLU'
p331
S'IR+HLU'
p332
S'IR+HLU'
p333
S'IR+HLU'
p334
S'IR+HLU'
p335
S'IR+HLU'
p336
S'IR+HLU'
p337
g7
S'sham'
p338
S'sham'
p339
S'sham'
p340
S'sham'
p341
S'sham'
p342
S'sham'
p343
S'sham'
p344
g5
tp345
sS'subclass'
p346
(lp347
S'IR_subcl'
p348
aS'IR_subcl'
p349
aS'IR_subcl'
p350
aS'IR_subcl'
p351
aS'IR_subcl'
p352
aS'IR_subcl'
p353
aS'IR_subcl'
p354
ag12
aS'IR+HLU_subcl'
p355
aS'IR+HLU_subcl'
p356
aS'IR+HLU_subcl'
p357
aS'IR+HLU_subcl'
p358
aS'IR+HLU_subcl'
p359
aS'IR+HLU_subcl'
p360
aS'IR+HLU_subcl'
p361
aS'IR+HLU_subcl'
p362
aS'IR+HLU_subcl'
p363
ag16
aS'sham_subcl'
p364
aS'sham_subcl'
p365
aS'sham_subcl'
p366
aS'sham_subcl'
p367
aS'sham_subcl'
p368
aS'sham_subcl'
p369
aS'sham_subcl'
p370
ag14
asS'subject'
p371
(S'0.5_Gy'
p372
S'0.5_Gy'
p373
S'0.5_Gy'
p374
S'0.5_Gy'
p375
S'0.5_Gy'
p376
S'0.5_Gy'
p377
S'0.5_Gy'
p378
S'0.5_Gy'
p379
S'0.5_Gy'
p380
S'0.5_Gy'
p381
S'0.5_Gy'
p382
S'0.5_Gy'
p383
S'0.5_Gy'
p384
S'0.5_Gy'
p385
S'0.5_Gy'
p386
S'0.5_Gy'
p387
S'0.5_Gy'
p388
S'0.5_Gy'
p389
S'sham'
p390
S'sham'
p391
S'sham'
p392
S'sham'
p393
S'sham'
p394
S'sham'
p395
S'sham'
p396
S'sham'
p397
tp398
ss.